(lp0
(lp1
F-0.24680753210205378
aF-0.06602941608416742
aF0.0
aF0.0
aa(lp2
F-1.909463320464566
aF0.0
aF-0.038989709903540046
aF0.0
aa(lp3
F-0.025581148667712644
aF0.4682109037666215
aF0.0
aF0.0
aa(lp4
F-0.11414493380033743
aF-0.19294630865978862
aF0.4213898133899594
aF0.0
aa(lp5
F-3.5576502032198953
aF-4.036392667443351
aF-3.8028857515331875
aF-1.2469793103912155
aa(lp6
F-2.7558844888825456
aF-0.8554779979698829
aF0.5415596861582168
aF0.27872926122611913
aa(lp7
F-2.1207093443271976
aF-2.637068981566796
aF0.32608601257326675
aF-2.040987522509203
aa(lp8
F-1.4329755612325485
aF-2.618226528649096
aF-3.2540591606776976
aF-2.4198065480768154
aa(lp9
F-0.7407565253999766
aF0.8472618789549317
aF-1.1636473600154558
aF-1.2562371919937472
aa(lp10
F-0.817376574402979
aF-0.6140130935365188
aF-1.297413660932732
aF0.8869825778227279
aa(lp11
F0.29492833338396696
aF0.5994967477749447
aF0.8667063570404181
aF0.23977076497324426
aa(lp12
F0.08084719887147043
aF0.14970300063984973
aF0.8135288076271578
aF-1.2626341583266811
aa(lp13
F-0.4154799121031329
aF-1.0767735572877848
aF0.0
aF-0.12424599548052846
aa(lp14
F-4.364808600225223
aF0.0
aF0.0
aF0.22789444098397363
aa(lp15
F-1.1792504661818588
aF-0.2938462256430208
aF0.8108922040783786
aF-0.6507427718918242
aa(lp16
F-0.1736516777938097
aF-4.277429443594353
aF3.197902521934448
aF-2.3509109671356705
aa(lp17
F-5.45427904499029
aF-3.974904369322724
aF1.1932816070188186
aF-5.383116820312622
aa(lp18
F-3.452880189674642
aF-5.255995764632139
aF0.1983306482405665
aF-4.867897384693831
aa(lp19
F-4.765978166259309
aF-3.0116600087801744
aF-5.8755109605859
aF-0.030808899566833647
aa(lp20
F-3.0313522989182866
aF-1.3039516748143722
aF-4.5138086888788385
aF0.6959745764578035
aa(lp21
F0.7348555273462916
aF-1.9380740913988277
aF0.2657525967281728
aF-0.9697705742535847
aa(lp22
F-0.1315023393137422
aF-1.3714500398351843
aF-3.4885820671186307
aF1.2279040658588947
aa(lp23
F0.1073079793723935
aF1.0348069983960844
aF-0.11771976534390491
aF0.2099639106576997
aa(lp24
F0.22282731705540335
aF0.31765114914092524
aF0.4321825019032483
aF0.4203134797602127
aa(lp25
F-0.9690962015590049
aF0.2020589616637261
aF2.183894630290469
aF0.5806933559279938
aa(lp26
F0.33918427526605116
aF0.0
aF2.7411337919692316
aF0.0
aa(lp27
F-2.825607747593223
aF-0.7590773794917198
aF3.440895481937624
aF0.0
aa(lp28
F-2.418510540060215
aF-2.7508327411467977
aF0.31930154620425494
aF-4.769475132658856
aa(lp29
F-8.14843520687161
aF-6.164402160183533
aF-0.14764510016054996
aF-6.066647222549694
aa(lp30
F-12.520000831627836
aF-8.084613321898146
aF-1.2181077276192314
aF-3.977991664084615
aa(lp31
F-2.500083301736435
aF-8.055946441107507
aF-2.154238800194738
aF-5.633166162602781
aa(lp32
F-4.589974141099134
aF-6.5991014354530355
aF-6.148061585544757
aF-0.6034312301270637
aa(lp33
F-1.14111379154172
aF-0.649468888173941
aF-2.5327171640649606
aF1.3598776912319368
aa(lp34
F1.5645320602523118
aF1.3663630078278062
aF-0.898097757516587
aF0.1032442920430772
aa(lp35
F0.2741899026010419
aF0.2623317655230313
aF1.3579307433608117
aF0.33506626842613846
aa(lp36
F0.1627277413206756
aF0.14997692444409838
aF0.1933317044679574
aF-0.09740120480907183
aa(lp37
F0.7436903828445096
aF4.186299330322716
aF0.6828270540565998
aF-0.4851445860480488
aa(lp38
F-0.20883883640270864
aF3.587036837812993
aF0.0
aF0.0
aa(lp39
F-1.1835593366537378
aF-0.19867491031196727
aF0.9361734068798101
aF-3.15317816828022
aa(lp40
F-4.890156263542434
aF-5.507419591418465
aF1.2649569436358654
aF-4.7754832272849175
aa(lp41
F-9.58579374542826
aF-6.848488252307251
aF-1.6507327669212164
aF-5.53113504695937
aa(lp42
F-8.50354998755009
aF-10.099238728163153
aF-1.4960624647374405
aF-8.554999363811065
aa(lp43
F-7.505966472017413
aF-3.4327949249619336
aF-8.467629401555474
aF-7.904764202951693
aa(lp44
F-8.248513728181775
aF-5.824156009172628
aF-4.2771747796320065
aF-6.916537488545338
aa(lp45
F-1.4515157205412512
aF-1.5614228210523873
aF-4.392200599775383
aF0.6067005114877766
aa(lp46
F0.4053008628503764
aF1.2875214485731787
aF-0.38528849294877326
aF0.19485333672335425
aa(lp47
F0.4666101715200287
aF0.9889058412540325
aF0.40441548383481507
aF0.390220541461274
aa(lp48
F0.37868308896535297
aF0.4201582587604849
aF0.17767715287854924
aF-0.4604445573803717
aa(lp49
F0.4849089573564105
aF0.0
aF0.0
aF2.785571360558836
aa(lp50
F1.5317434169552622
aF4.1101001630877265
aF0.0
aF0.5737534240397485
aa(lp51
F-2.5831424658172994
aF1.0594067655359167
aF-1.3035939448530964
aF-2.5051301510080313
aa(lp52
F-4.331030251953596
aF-2.252460745794438
aF-3.0698647583796133
aF-5.039486132745794
aa(lp53
F-8.195332636103231
aF-6.4815164785159975
aF-2.193476181519252
aF-6.38619447360618
aa(lp54
F-5.231633895305428
aF-6.1388368259191495
aF-6.1074982442679016
aF-4.8152604680425135
aa(lp55
F-6.035467300615859
aF-6.450158255444747
aF-8.597623522273993
aF-2.413359992736443
aa(lp56
F-7.18931103968896
aF-1.4462662516042841
aF-6.9360519512677214
aF-6.754771479989425
aa(lp57
F-2.211594820993371
aF-1.8695324039014904
aF-5.256871748518537
aF1.1112049797791888
aa(lp58
F0.03262133338760855
aF-0.2526348792921283
aF0.49366209824467094
aF1.801995916347777
aa(lp59
F0.8057346657055209
aF0.42228222629867856
aF0.4954948481182178
aF0.493563255583067
aa(lp60
F0.4202272663290124
aF0.45893628991075325
aF0.4702285046721816
aF0.47693284999606067
aa(lp61
F4.404241449712858
aF1.7775702161065903
aF4.300639462115354
aF2.5869862789637086
aa(lp62
F1.1518329451964007
aF2.358177407900215
aF3.937193689796429
aF0.30226341184000605
aa(lp63
F-1.1359488583379844
aF1.862464278991847
aF0.0
aF-0.2611247154486856
aa(lp64
F-5.599867020052218
aF-2.370813294635818
aF-2.273606444474983
aF-2.9831858193738783
aa(lp65
F-4.97512266260295
aF-1.419340380561646
aF-3.1288090962732915
aF-7.384814722234448
aa(lp66
F-9.949461331958886
aF-7.363430261664378
aF-9.071833067442327
aF-6.1709435819078715
aa(lp67
F-7.189073798519657
aF-1.1896666749807627
aF-9.205653183767055
aF-3.847041018352637
aa(lp68
F-3.7492516729232706
aF-5.5090293451939445
aF-5.479842319953776
aF-0.8659983556718874
aa(lp69
F-2.627260655544808
aF-1.0856063430109026
aF-2.1550174129923807
aF0.6569581726583513
aa(lp70
F0.3311567559828389
aF1.6850546292304076
aF-0.623106546639252
aF0.9896071843210305
aa(lp71
F0.6810239769254427
aF0.6956238382688673
aF1.987047224844332
aF0.8232312313227376
aa(lp72
F0.3169107936937795
aF0.3835640764259273
aF0.7121731041596719
aF0.3992810529255437
aa(lp73
F3.637290020866172
aF0.0
aF0.0
aF5.732581882823518
aa(lp74
F-0.5933000905433552
aF6.28830641754554
aF1.0977180528162638
aF0.18457528800455253
aa(lp75
F-0.5378281158615228
aF3.3318057614571184
aF0.6847266205173931
aF0.540866357340212
aa(lp76
F-4.830209295273923
aF1.636813069025668
aF-0.37718426048484394
aF-2.4459149987804545
aa(lp77
F-4.482429293628388
aF-2.446065120995677
aF1.2771152423185084
aF-4.402226265520807
aa(lp78
F-8.012156545635236
aF-4.691381078782817
aF-5.823647144302498
aF-3.4908039225442518
aa(lp79
F-4.061708589753042
aF0.968292789908627
aF-3.1894910176368136
aF-1.2748082583471014
aa(lp80
F-1.5811896797568736
aF2.243585915762229
aF-3.06447516038575
aF-2.557690014121207
aa(lp81
F-1.7620782971261202
aF1.1830426836703734
aF-4.022062383370462
aF1.6781608294622923
aa(lp82
F0.6685658900518504
aF2.264128999359763
aF-0.5735084551710791
aF0.44459121150833114
aa(lp83
F0.5556183229916662
aF0.7133667504290877
aF1.446107610912314
aF0.734552233243173
aa(lp84
F0.4946023345254896
aF0.709910728433432
aF0.8227457682802013
aF0.45651453975692674
aa(lp85
F9.354518949659795
aF0.0
aF0.0
aF0.0
aa(lp86
F3.2098738228381767
aF3.272924613723715
aF7.388543671374694
aF3.443820150112704
aa(lp87
F2.299203357100935
aF2.040026946163973
aF5.632885693912032
aF1.0803196563338966
aa(lp88
F-1.6346629453400339
aF4.491229962038341
aF-0.693561652229056
aF-1.9638523634024707
aa(lp89
F-3.066605157602801
aF0.4093344424640038
aF-3.803118555149065
aF-1.4585443591606766
aa(lp90
F-2.243115342417943
aF-2.9790046760544677
aF-0.07047375155954846
aF-3.091266020560551
aa(lp91
F-3.232071289160147
aF-3.4654273267010716
aF-1.0856047066266745
aF-0.5615096372711591
aa(lp92
F-1.3286095129766107
aF1.5526155900660712
aF-4.446325122962872
aF-0.05288889538341374
aa(lp93
F-1.4127145919673736
aF0.4148420940682388
aF-0.5870681673976578
aF2.2646370985256636
aa(lp94
F1.0391136422505767
aF1.921911659106808
aF0.3661746475967464
aF0.6878680143243917
aa(lp95
F1.1945222963966127
aF0.8546515466978463
aF0.6579854149199768
aF0.6245228251540046
aa(lp96
F0.4455808786997331
aF0.7177303910375494
aF0.4678185860708132
aF0.6855075446899263
aa(lp97
F3.7151765948194546
aF8.451854699507969
aF1.8111520029466435
aF2.5865487890203624
aa(lp98
F-2.2032436672162192
aF0.02873770931385346
aF6.665888107758448
aF0.04380080675789271
aa(lp99
F3.152022871050733
aF6.125868001331725
aF0.02586393838246815
aF3.3239791258973503
aa(lp100
F2.4346598005140057
aF0.0820226515690661
aF4.862249069101291
aF1.6909189925250339
aa(lp101
F-3.443129136852717
aF0.6079900924129631
aF3.3052298786389005
aF-0.7812556939979916
aa(lp102
F-2.1031865232053697
aF3.177440645317597
aF-1.8091847895291642
aF1.0411054478635948
aa(lp103
F-0.9307707227330135
aF1.2563705550935338
aF-1.3936514833538236
aF1.564523165455757
aa(lp104
F-0.8396413774395859
aF1.2065901350345158
aF-0.7195726091510751
aF2.519005618507639
aa(lp105
F-1.5274000546384863
aF2.19040634680082
aF0.022142330790275354
aF0.9842522357814132
aa(lp106
F1.3993587781835508
aF3.0511254959064518
aF2.0232843108810115
aF0.7031708642966739
aa(lp107
F1.0665149184537992
aF0.9796523747724464
aF0.7856906291108803
aF1.5099549146512075
aa(lp108
F0.4191634647311049
aF2.126386052168742
aF0.3467921595263103
aF0.44989396010152044
aa(lp109
F6.436389575214099
aF7.110167270176327
aF8.02531852022518
aF7.259934665187868
aa(lp110
F4.256629870006862
aF4.398766869550013
aF8.26134929457515
aF4.883048729877043
aa(lp111
F3.7709719013998715
aF2.591340570318814
aF6.681970172708953
aF5.274943157880846
aa(lp112
F2.03589443506181
aF3.1902090607601754
aF7.164742961099437
aF3.0409299615326724
aa(lp113
F2.2542371854879306
aF4.596543880268655
aF1.2770459710282278
aF-0.20925958850430332
aa(lp114
F1.7260151573630933
aF2.591914853982895
aF1.3231484460407246
aF-0.4441051953744044
aa(lp115
F0.25960124020101066
aF2.233266379504536
aF1.345283204182371
aF1.1977848893545073
aa(lp116
F-1.5473278853806378
aF3.6929582322268772
aF1.3462501773669149
aF0.16874228470569233
aa(lp117
F1.191474057042943
aF4.107926999015703
aF0.4008615698842956
aF1.685991588767023
aa(lp118
F0.8776910117323561
aF2.2015415658024873
aF0.5790344919837496
aF1.0034347935591712
aa(lp119
F1.6829791586254503
aF0.621644959138875
aF0.9904348210156946
aF1.0080804980140659
aa(lp120
F1.0949232834053768
aF1.1167712349043883
aF0.7295413959706927
aF1.2085191876379646
aa(lp121
F7.175372385421258
aF9.71747592013594
aF8.424104735241139
aF8.77629292545463
aa(lp122
F6.459401098411523
aF10.074949590368657
aF7.939421355171736
aF5.328342362302655
aa(lp123
F5.088427106752645
aF7.602337833299492
aF9.262843921911898
aF2.705063898178067
aa(lp124
F4.720747053537298
aF4.603275885367468
aF7.695531220444002
aF5.592735693707844
aa(lp125
F3.216090228582075
aF1.2897615382756569
aF2.4589101879583923
aF2.2987471678171905
aa(lp126
F0.17614418808672852
aF1.630383997824092
aF3.621910934739259
aF1.6681511178278345
aa(lp127
F0.8197289575181267
aF1.1579310211999758
aF2.297459631627015
aF1.3900857254430166
aa(lp128
F0.6596141215182421
aF1.9354834242316903
aF1.3428316513303986
aF2.0465015131089097
aa(lp129
F3.1954081508778835
aF1.3637504134593206
aF1.3420798580218065
aF1.3447211162917176
aa(lp130
F0.7359092352687505
aF2.9437445858313964
aF1.079491596769553
aF0.8596372568019505
aa(lp131
F0.9803607514197739
aF1.3075591906394044
aF0.953456696051482
aF0.6028169381878544
aa(lp132
F0.2113114079001588
aF1.7410466278704249
aF0.8905963280289565
aF0.35791083906429705
aa(lp133
F0.0
aF0.0
aF0.0
aF0.0
aa(lp134
F8.490520374669046
aF7.673508704747784
aF10.132599094707235
aF8.57385895008677
aa(lp135
F7.591559791955944
aF6.451918815198698
aF8.960616026271081
aF6.40475211304406
aa(lp136
F4.688273787397294
aF6.663495795221173
aF7.575174269232155
aF2.897694337283191
aa(lp137
F2.1281480021328143
aF0.33472603319295624
aF6.808793068423972
aF1.824441043094801
aa(lp138
F2.3926377006548623
aF0.7075765792586308
aF6.178753054418444
aF1.184845270321614
aa(lp139
F0.6092631325721366
aF2.3458570617529055
aF5.407285319236135
aF1.864699361912198
aa(lp140
F2.122403742473825
aF1.315596179378311
aF4.942600600578232
aF0.39481947351722724
aa(lp141
F1.4443141240337423
aF0.3705124031614076
aF4.48238962927415
aF0.6321360063908349
aa(lp142
F0.5290265963825144
aF0.2828988289727893
aF3.8233069377917763
aF0.5928691182034939
aa(lp143
F0.567622027935527
aF0.7882626455898609
aF2.902756065617199
aF1.1961294053444789
aa(lp144
F-1.9590857722937005
aF0.4884231905967908
aF2.9743863368326395
aF0.47826174498739
aa.