(lp0
(lp1
F0.0
aF0.0
aF0.0
aF0.0
aa(lp2
F-0.8790712140321121
aF0.0
aF0.0
aF-1.067506159292399
aa(lp3
F-1.3179088386325915
aF-0.8646799890268432
aF0.0
aF-2.2483099620185403
aa(lp4
F-0.9073429676254904
aF-7.9723488281109685
aF-3.0471945303282113
aF-1.455558253531468
aa(lp5
F0.9640277670715651
aF-2.9424748131606804
aF-6.270005202275598
aF-3.2628338926107525
aa(lp6
F-1.5809457938721403
aF-3.965986928716084
aF0.7201654951562988
aF-2.5461041940135845
aa(lp7
F-2.330355375539329
aF-2.6691508259201777
aF-1.8605027608902247
aF0.05562436084384186
aa(lp8
F-2.712671382020541
aF-3.626885336651094
aF-3.2044495281144916
aF0.3265867485359406
aa(lp9
F-0.9067745943701683
aF-0.7621124778332536
aF-0.5787482330569861
aF0.5133941036143788
aa(lp10
F-0.37029164425121613
aF-0.5594923421302372
aF-0.5882686532354453
aF0.4878964378318289
aa(lp11
F0.32367116590271733
aF0.3209863530267381
aF0.15870878560934348
aF0.991819286490818
aa(lp12
F0.3943290532164164
aF1.0608927905963954
aF0.5119526430441691
aF0.5652045249803811
aa(lp13
F0.0
aF0.0
aF0.0
aF0.0
aa(lp14
F-1.2888063068924802
aF1.5067297079824464
aF-3.8652430102309983
aF0.0
aa(lp15
F-2.3274387400408676
aF-1.3083896498162904
aF1.1764158581820192
aF-4.771904950902467
aa(lp16
F-2.8290588265145367
aF-5.493832690906756
aF1.1271392381802126
aF-5.692688298711957
aa(lp17
F-3.460536880475003
aF-3.561007098248865
aF1.3371195956424657
aF-2.3822557130209567
aa(lp18
F-4.909356506777848
aF-5.395326942536589
aF-0.8979547509470631
aF-4.8653073258234105
aa(lp19
F-0.42848831571946794
aF-5.359905887551951
aF-5.410434447988276
aF-6.796986675023612
aa(lp20
F-3.028501288633923
aF-3.5975752080705155
aF-6.35144897879085
aF0.1693245303119208
aa(lp21
F-1.22081733334863
aF-1.6785308791629212
aF-1.1540398216761323
aF0.6087920827191
aa(lp22
F-0.9091311480065608
aF-0.30244702888304975
aF-2.5140486424977935
aF0.8728697377589697
aa(lp23
F0.016424062456689318
aF-0.08502085143647867
aF0.8199824845685334
aF0.18197934634275076
aa(lp24
F0.33170237010227427
aF1.1964813486156087
aF0.2258981904234408
aF0.2933847706117056
aa(lp25
F0.0
aF0.0
aF0.0
aF0.0
aa(lp26
F-2.5696750542963986
aF1.8301766472079346
aF0.0
aF0.30586126953976456
aa(lp27
F-0.9349009802712029
aF-0.20066891513697924
aF2.271463824341439
aF-2.7332451612825492
aa(lp28
F-4.810554114319644
aF-4.1513711246407805
aF1.4217564776051896
aF-2.921725581429519
aa(lp29
F-3.54543539765465
aF-5.419650273600494
aF-1.01802348760662
aF-5.57879975143509
aa(lp30
F-5.669571950986609
aF-6.515447656934483
aF-5.915998381346779
aF-3.648396438239582
aa(lp31
F-7.87387228960725
aF-6.595218188844975
aF-4.799357896746382
aF-2.946983654285278
aa(lp32
F-3.4207660197410616
aF-4.292647689054844
aF-4.902974302528091
aF-4.422006788201774
aa(lp33
F-3.422831857112889
aF-2.9198076875478916
aF-6.422262402211349
aF0.5938164500197652
aa(lp34
F-0.09956263432050118
aF-0.8013459811971811
aF-2.682737922583106
aF0.943845802417657
aa(lp35
F0.30587641621088424
aF0.13856799999712946
aF0.013940841574608924
aF1.1815657010130678
aa(lp36
F0.5974413729114197
aF1.319186681823905
aF0.3444250793239901
aF0.5654753863641289
aa(lp37
F0.0
aF3.1845504853235913
aF0.0
aF0.0
aa(lp38
F0.44068554550430994
aF0.3000896503296277
aF3.956931718267015
aF0.584846468552693
aa(lp39
F-1.3297009125990613
aF1.4593178824556476
aF-0.33413850286480345
aF-1.4128758672685429
aa(lp40
F-2.5941881629986505
aF-4.02944298727353
aF0.47719627546753113
aF-5.760433372091395
aa(lp41
F-5.247946552648723
aF-7.666447791002183
aF-8.131938102704495
aF-7.524981828300894
aa(lp42
F-11.027098305852986
aF-11.666370959602203
aF-4.664750502675085
aF-8.859425353592462
aa(lp43
F-5.345687638311447
aF-9.334916157044907
aF-9.393296702772949
aF-4.20944959234655
aa(lp44
F-4.328236809160751
aF-5.3128265399254175
aF-6.5607714977129135
aF-0.990371102878506
aa(lp45
F-0.880334702481014
aF-3.912376111720531
aF-5.0769205830341795
aF-0.03657889937942044
aa(lp46
F-1.161664751599199
aF-1.5276403016886768
aF-2.5752469226710355
aF0.8567388099982245
aa(lp47
F-0.23125650025947556
aF-0.139992835612507
aF-0.9006040059941277
aF1.223706261444965
aa(lp48
F0.6265640164500768
aF1.5111978360269547
aF0.6355207804539315
aF0.8335725414602378
aa(lp49
F0.5123192053380955
aF5.526209181144406
aF1.3354592861246903
aF0.8805031514659796
aa(lp50
F0.6970106258619059
aF0.0
aF3.9484176420201726
aF-2.3363612394598086
aa(lp51
F-2.2341094795036076
aF1.8308716057692545
aF0.23264197008316492
aF-1.5716275624566252
aa(lp52
F-5.970256353992614
aF-3.5154130845377907
aF0.08763694699183726
aF-7.814673874217803
aa(lp53
F-8.576495975497002
aF-6.738692930963042
aF-3.3160487334485387
aF-7.084989858281724
aa(lp54
F-8.113144287970208
aF-7.536678623946417
aF-5.244924330362538
aF-7.997315572373367
aa(lp55
F-10.518569813993293
aF-10.505470546674989
aF-9.377769220794436
aF-8.538685558331622
aa(lp56
F-5.363159212949574
aF-3.750361117684659
aF-4.218142255601283
aF-4.2832111745086054
aa(lp57
F-4.525612555073787
aF-2.075630051863097
aF-5.041735451753022
aF0.6467231662211996
aa(lp58
F-0.6061693412972549
aF-1.0962021704351494
aF-1.0396642731866423
aF0.9742660143027764
aa(lp59
F-0.49229962901039653
aF1.3595336818120953
aF0.134231742876548
aF0.0021625619053828615
aa(lp60
F0.7078014415383299
aF1.5749798174382512
aF0.7210402957663858
aF0.6848909661182498
aa(lp61
F3.183156276006091
aF2.1236226339712694
aF5.658316781087307
aF3.8887421563135702
aa(lp62
F0.6736074191604593
aF5.132750711297943
aF2.120439033866998
aF0.07021588269287785
aa(lp63
F-0.33299447852598535
aF0.4028401666625818
aF4.302433992414834
aF-0.07684148700522032
aa(lp64
F-4.328962775064211
aF-1.8757311861598225
aF1.266960086000235
aF-7.342677763523429
aa(lp65
F-5.434351549472186
aF-4.749849667186022
aF-1.2304026830618546
aF-6.188783237822524
aa(lp66
F-9.79227856504663
aF-9.788274008842077
aF-6.130121186773634
aF-9.721790702131212
aa(lp67
F-9.133157686099295
aF-9.26485681942478
aF-6.650171244562658
aF-10.737778411156617
aa(lp68
F-4.129326547886206
aF-1.6543823367053092
aF-3.541565108922795
aF-4.2497206080073875
aa(lp69
F-1.8362650879954712
aF-0.20941401033575935
aF-2.631812044921261
aF-3.165597806308219
aa(lp70
F-0.4227945948249406
aF0.7243987280776549
aF-1.7640431246102508
aF-4.521530677124575
aa(lp71
F0.27193160977139846
aF1.6442076981593627
aF0.07537870074479237
aF0.26883981902264303
aa(lp72
F0.8900790052756573
aF1.785878121612622
aF1.147665223875549
aF0.9316306016918988
aa(lp73
F2.4220095157248474
aF6.911525325213699
aF4.4868587972540315
aF5.572546018268247
aa(lp74
F0.7055882724331194
aF2.0754683137966268
aF5.662795889108524
aF0.6601156438041038
aa(lp75
F2.3393413189763375
aF0.0
aF0.4765678459042843
aF0.5114904649952857
aa(lp76
F-2.473979447471754
aF2.682377510287582
aF-0.7308639019988692
aF-0.4590690621193088
aa(lp77
F-3.4825058279179295
aF-0.25827526013144453
aF-2.6478465005736496
aF-4.98033428443208
aa(lp78
F-7.730050124591645
aF-1.3662236846526572
aF-6.596106675313753
aF-9.343903138805938
aa(lp79
F-6.047013321278573
aF-0.24218359637714862
aF-8.202416350274474
aF-8.320835101595595
aa(lp80
F-2.536258128769611
aF-1.6590728163593527
aF-7.918618536084695
aF0.02927496268629621
aa(lp81
F-0.36053173267736727
aF-0.12362774238460796
aF-1.624309626135434
aF0.770773682816814
aa(lp82
F-0.08287537630699646
aF0.027966463906716386
aF-0.3193998574684723
aF1.245824024410274
aa(lp83
F0.5470903026547373
aF1.8869023500681454
aF0.9425061710210045
aF0.20856391819521783
aa(lp84
F0.9313966191911531
aF1.9354948234197538
aF0.6770907485935242
aF1.0681830387352385
aa(lp85
F2.649489772142236
aF5.462053775567413
aF1.7196432920785643
aF6.62601060271254
aa(lp86
F4.476144603158168
aF7.169377568569541
aF2.746713560376531
aF0.224632818693053
aa(lp87
F0.0
aF3.257973506059862
aF0.0
aF0.15472152621676158
aa(lp88
F-2.7472580720784117
aF4.318970171279959
aF2.5808537413709574
aF-0.7132332170661969
aa(lp89
F-9.092762821654015
aF2.4968860000394035
aF-0.15800111655939938
aF-4.517273221466889
aa(lp90
F-4.9455642963559985
aF0.041752602350463665
aF-3.505425295804068
aF-4.4431408373687455
aa(lp91
F-3.1896686289137133
aF0.5099754041115262
aF-0.16474659896077626
aF-0.7004375666534286
aa(lp92
F-4.916348141912387
aF-0.03435229579682405
aF-1.7883390506298762
aF-0.10053832364984176
aa(lp93
F-0.7881024877347913
aF1.7114274192534684
aF0.0
aF0.5143595860818277
aa(lp94
F0.26193181911000013
aF0.2910010693815775
aF-0.22752132094610675
aF1.6969708545158104
aa(lp95
F0.8848541637117533
aF2.2418869350043553
aF1.071963903042761
aF0.7463220167932448
aa(lp96
F0.766664632214027
aF1.2661262274493374
aF2.1306820220057636
aF1.197575871475156
aa(lp97
F1.8415995099462508
aF8.238019904490516
aF5.814339960000832
aF5.352626672555058
aa(lp98
F3.8827143533786064
aF5.985938567360637
aF8.031259619711085
aF4.115995178371017
aa(lp99
F0.0
aF5.334593150140355
aF6.185110853605646
aF1.1891400538970824
aa(lp100
F0.42342586316498654
aF5.940415858462861
aF3.8097409929064683
aF2.9207302903404484
aa(lp101
F-2.150677249597402
aF0.8424795998609615
aF4.007140357539206
aF-0.018534537524591662
aa(lp102
F-3.593589402366844
aF0.47393905747615533
aF2.5412843920471486
aF0.39558972126082004
aa(lp103
F-0.5417733371755966
aF0.3478167329395865
aF2.2130234811894933
aF0.31864251188272297
aa(lp104
F-0.7425005052310435
aF0.20747002385630126
aF0.8248769301724052
aF1.9341067424081677
aa(lp105
F0.9125638275117083
aF2.80990437632663
aF0.450378200933618
aF1.1611329357557834
aa(lp106
F0.5604471438257161
aF1.3384974575558795
aF2.8280581519394246
aF0.5754255389643779
aa(lp107
F1.303596674833782
aF1.4353570219564833
aF2.615367529527859
aF1.3222497873654466
aa(lp108
F0.6722080695928894
aF2.169380799788846
aF1.1127041409734255
aF0.9200482904299352
aa(lp109
F7.7126329556894335
aF9.085752577544088
aF7.968774358789719
aF3.143785090697051
aa(lp110
F5.09019086930518
aF5.55542755093783
aF8.294059596022008
aF5.748064108959182
aa(lp111
F0.7838617186084678
aF4.250571405306042
aF7.153872856531124
aF3.782176847824358
aa(lp112
F3.540279066741444
aF3.342243049610063
aF6.70588659411886
aF3.8923491149272156
aa(lp113
F0.26411398720890944
aF1.8192842992720684
aF5.045613475111605
aF2.0311258402805135
aa(lp114
F1.887538923861734
aF3.260037464815161
aF1.097903289781654
aF0.7473342204764202
aa(lp115
F0.6179578049462776
aF0.20846738408080684
aF3.253597607225544
aF0.9123549434837689
aa(lp116
F1.4365186158490553
aF1.633343683049266
aF3.072796664080377
aF1.276088566798515
aa(lp117
F1.0130799292129375
aF1.6390909645771954
aF3.3859983893232393
aF1.032987670364989
aa(lp118
F1.0447947777527586
aF3.0623414159599744
aF0.6063067181759151
aF0.4635245131322216
aa(lp119
F1.2100951674029243
aF1.161973118949866
aF2.6879263416026316
aF0.6705699379331299
aa(lp120
F0.29543979902159184
aF0.708314973965209
aF2.4878983453969297
aF1.1922474253254174
aa(lp121
F8.80361641224636
aF10.296584046700522
aF8.613028975916041
aF7.498975515870352
aa(lp122
F7.142504584699415
aF7.212282302376669
aF9.735792107958689
aF6.515146580207174
aa(lp123
F6.144733918696315
aF6.656470830685437
aF8.282800756573106
aF5.305949535048471
aa(lp124
F4.4971010589285365
aF4.209076274987278
aF6.974232030836444
aF3.995275663470897
aa(lp125
F1.6152840733614282
aF4.1025073655134685
aF6.031715475854688
aF3.1364345394942696
aa(lp126
F2.4858247872099164
aF4.7089723119291165
aF3.117465644489907
aF2.14954132473806
aa(lp127
F2.6657586515100338
aF2.655088942555359
aF4.596764347238988
aF1.599067781542383
aa(lp128
F1.77754140712994
aF2.2946711533980317
aF4.0274812780951255
aF1.9500541184671214
aa(lp129
F1.5860018635044055
aF1.860198797385802
aF3.736661497603777
aF1.059014353005233
aa(lp130
F1.312373233297102
aF1.8015140546618507
aF3.3196799205483085
aF1.2074480594998738
aa(lp131
F1.3863321010522436
aF1.453547938239338
aF3.0462605245399996
aF0.9885612450009513
aa(lp132
F0.8419190022965584
aF0.7835094397624333
aF2.363423921104289
aF0.9051203483124366
aa(lp133
F0.0
aF0.0
aF0.0
aF0.0
aa(lp134
F8.970004036755885
aF8.867975297016283
aF9.960263299927092
aF7.482936821796668
aa(lp135
F7.341676330072423
aF6.974240319991864
aF8.84135792793353
aF5.983727569315975
aa(lp136
F5.88570021075075
aF5.923675644626757
aF7.649480000792539
aF5.559604365138632
aa(lp137
F5.383466427244773
aF5.119142959927771
aF6.655496149293533
aF4.068550803455486
aa(lp138
F4.18044742575118
aF4.302524098789497
aF5.656120116645748
aF4.228785829157752
aa(lp139
F3.5211883521489584
aF3.4530939426702854
aF5.019018873617313
aF3.245784040066686
aa(lp140
F2.6405973195713437
aF2.8527614712194826
aF4.541207441070909
aF2.654313516711922
aa(lp141
F1.9459383111535695
aF2.7490990690715744
aF3.898768769568844
aF2.2592008982797434
aa(lp142
F1.8758871243004422
aF1.7897563975444128
aF3.583638303290094
aF1.4956062443581737
aa(lp143
F2.5254302019484487
aF1.4507495332812836
aF1.7263966551893577
aF1.2892083106782337
aa(lp144
F0.7371222134406936
aF0.8647449743403214
aF1.7743664982742877
aF0.7639040775007166
aa.