(lp0
(lp1
F0.0
aF0.0
aF0.0
aF0.0
aa(lp2
F-16.627730871227687
aF-13.200439611781377
aF0.0
aF0.0
aa(lp3
F-28.136420395692028
aF0.0
aF-11.761591694097014
aF0.0
aa(lp4
F8.480082510866866
aF0.0
aF0.0
aF0.0
aa(lp5
F11.265346313110982
aF-4.776106840122676
aF1.8408904326691227
aF-226.29253419627025
aa(lp6
F-7.112806636910053
aF-3.053420080192202
aF-4.746001223083318
aF-6.358146427350542
aa(lp7
F-5.418647840144098
aF-5.00104460093822
aF-2.382346511262843
aF-6.021203143135738
aa(lp8
F-54.97844358773266
aF-12.10583188538601
aF-2.602220333526022
aF-2.347120888907088
aa(lp9
F-268.99570027726224
aF-77.44110258294187
aF-1.1847298509439288
aF0.018852613654400094
aa(lp10
F-17.57396899920066
aF-1.0431284529831795
aF-1839.0406494624774
aF0.11028619155636707
aa(lp11
F0.2621685530708168
aF-2.702899848853442
aF-2.4042288098686337
aF-0.6944287060469055
aa(lp12
F-1.1216400463858298
aF-1.4262632635045416
aF0.14327340795116403
aF-2.0889667136162
aa(lp13
F0.0
aF0.0
aF0.0
aF0.0
aa(lp14
F-14.815308206264207
aF-48.27228838096697
aF0.0
aF0.0
aa(lp15
F-7.412708376309977
aF0.0
aF-0.5381136840426464
aF0.0
aa(lp16
F-5.88480833849327
aF15.644525170229624
aF-4.589806711513411
aF-3.990727176921571
aa(lp17
F0.07567316517104944
aF21.212936006935276
aF22.204497775811962
aF21.610535455638896
aa(lp18
F-182.89076412109685
aF-92.4351280421204
aF-1.7867471134743045
aF-4.440701508696212
aa(lp19
F-9.344612826211836
aF-8.531637034087941
aF-22.2110060193845
aF-5.1360096192186475
aa(lp20
F-23.318429894082584
aF-12.426001593193382
aF-5.46324138659265
aF-6.276053399184186
aa(lp21
F-81.18608257130776
aF-2062.0535699052057
aF-9.771060680222723
aF-1.624339000595602
aa(lp22
F-1247.0392635749536
aF-1.2691128559120337
aF-91.7271506660891
aF-3.9972995768109043
aa(lp23
F-1.049285860843047
aF-2.284123119239891
aF-5.588080409571756
aF0.31498570661759395
aa(lp24
F-4.22482386163683
aF-2.4530786475656896
aF-1.3860391036453565
aF0.5657731431808873
aa(lp25
F0.0
aF0.0
aF0.0
aF0.0
aa(lp26
F-49.890022442119665
aF0.0
aF0.0
aF-33.23278687386806
aa(lp27
F-0.47945929248199737
aF-2.9352624727828545
aF0.46483447262335065
aF8.747953025587512
aa(lp28
F-2.6082137060679096
aF-2.91564856124718
aF-2.664600876887068
aF-7.919848173582576
aa(lp29
F-2.0777506612792873
aF-181.68202160651563
aF-2.479375085746589
aF-3.312861869070227
aa(lp30
F-23.970222570925166
aF-10.22715823947935
aF-15.949278637848732
aF-4.828749248728167
aa(lp31
F-6.020095462484706
aF-9.425863674176231
aF-4.4159688303299385
aF-8.841907355035318
aa(lp32
F-26.035189464790573
aF-115.40077408251412
aF-5.5894951546180724
aF-39.75071402450985
aa(lp33
F-3.33685072104412
aF-1514.7340117165456
aF-42.84770982382766
aF-117.20495015963347
aa(lp34
F-345.3678069626946
aF-2.093939770840048
aF-106.6593744174935
aF-40.06421677056598
aa(lp35
F-160.31513986394285
aF0.44632780250580006
aF-5.852993496590374
aF-51.19201436994263
aa(lp36
F-3.7026029335321295
aF-1.654735634375426
aF0.3525601731722429
aF-7.317962985226317
aa(lp37
F0.0
aF-0.6965295668323574
aF0.0
aF-0.12128634041195016
aa(lp38
F-20.94486563002236
aF1.2354397262454468
aF-0.2441899681532316
aF0.0
aa(lp39
F-36.39394290955376
aF-21.07448886751234
aF-0.09628692121257945
aF1.521685568802457
aa(lp40
F5.053411843554454
aF6.004487221252118
aF-1.6522091850986305
aF5.580165791309056
aa(lp41
F29.604425432294818
aF30.024151360510327
aF28.277066271062225
aF30.19015391241317
aa(lp42
F-9.221167040441825
aF-2.5431517530505188
aF-1.4842021847772011
aF-1.7642213753574034
aa(lp43
F-39.960495684247924
aF-6.13042790694025
aF-8.898400576837366
aF-22.439626925232336
aa(lp44
F-13.833860411618586
aF-8.02113124020398
aF-36.99567440716131
aF-16.503765653084542
aa(lp45
F-36.665191054126346
aF-4.042194418579954
aF-28.626670636828816
aF-214.6196763425308
aa(lp46
F-31.18800251780282
aF-70.58128570919456
aF-53.336341872832165
aF0.2706022397671799
aa(lp47
F-3.8288081530404585
aF0.602791012020089
aF-1.4444641275336392
aF-5.32230444979679
aa(lp48
F-31.953843212081434
aF-5.249240159438587
aF0.278150670074483
aF-4.052846968679494
aa(lp49
F-1.749307961322502
aF-0.02257974667910471
aF-0.7687207916759757
aF-0.8627618312861675
aa(lp50
F1.348893827294369
aF0.0
aF0.1773190695302196
aF-0.9683073302875066
aa(lp51
F-1.4714873227166985
aF-21.13822889271221
aF1.746023049749471
aF0.0
aa(lp52
F22.065896270298143
aF6.110860706351902
aF20.725699850926347
aF-0.9702818701221965
aa(lp53
F-1.3389655840953631
aF-7.795133861414399
aF-0.8353102680800784
aF-1.4250055621687425
aa(lp54
F-2.203261161512234
aF-1.922701921368862
aF-0.9233118210320366
aF-5.095889041476534
aa(lp55
F-11.621051771655585
aF-11.210892854068653
aF-4.687132334389003
aF-16.554734201017002
aa(lp56
F-34.08897221557614
aF-27.394911072764703
aF-7.133220399173385
aF-35.70934674819108
aa(lp57
F-4.219596109953895
aF-76.21692163458287
aF-25.062483305374435
aF-1260.3516186011313
aa(lp58
F0.07991905457180144
aF-52.52629076550099
aF-4.953174247963141
aF-38.66471740169551
aa(lp59
F-5.754489339698751
aF-1.6139294211839137
aF-1.417642378571396
aF0.29495491103700866
aa(lp60
F0.42599148153772515
aF-5.0197340180962575
aF-1.2455293791449318
aF-2.014783087910556
aa(lp61
F-0.8168158493559241
aF0.0
aF1.2741328790448454
aF2.6270637302401787
aa(lp62
F-0.12070617311652156
aF-38.617232490608224
aF3.449201368635978
aF0.32280370798575336
aa(lp63
F-0.7924633764185186
aF15.49624879721848
aF-23.476199864296078
aF13.46273530500059
aa(lp64
F1.6703640648800786
aF3.7011336979420806
aF2.8543903699028763
aF-10.11465601953716
aa(lp65
F-4.155338294917227
aF-3.643496443757881
aF0.2862830137940914
aF-12.192620141776525
aa(lp66
F-485.25128904928846
aF-42.463739945325415
aF-3.5117938837902627
aF-8.823046723143275
aa(lp67
F-6.675849984502269
aF-3.4667725571974755
aF-12.143498033157195
aF-64.53860695795328
aa(lp68
F-10.536920076221282
aF-4.5887344360977185
aF-11.584890798802881
aF-16.738375565178014
aa(lp69
F-90.33082289269086
aF-38.67849549570546
aF-5.2196297920676775
aF-0.1496703881912223
aa(lp70
F-4.730005092880919
aF0.8827902654528259
aF-12.248121643518713
aF-301.8227225770665
aa(lp71
F-9.032546968741281
aF-12.797257241847817
aF0.8308243240655604
aF-14.705396763719188
aa(lp72
F-43.666391335221974
aF-45.94195932016662
aF-3.5610164548622176
aF0.5365970552441901
aa(lp73
F16.93640032939743
aF28.07953814373508
aF27.939358409715197
aF0.0
aa(lp74
F2.5179653519934617
aF-52.925425453508446
aF0.20982108161581722
aF-1.1317156365477226
aa(lp75
F-58.0898419035818
aF8.982890684584474
aF1.2766528573478115
aF-16.40263401870134
aa(lp76
F-1.7630587228453152
aF2.381150219572754
aF3.317594123438756
aF2.333495514574031
aa(lp77
F-7.154214186854804
aF-78.32015109273152
aF-0.11520880436442735
aF-11.059534446166777
aa(lp78
F-15.311663357365767
aF-0.6639942073224185
aF-11.63492040475766
aF-7.40221565615922
aa(lp79
F-54.075579630062954
aF-13.244955277030693
aF-2.3614544431969513
aF-224.6284303093094
aa(lp80
F-3.433691724684291
aF-18.81405108218021
aF-122.87041424997184
aF-936.1507207427472
aa(lp81
F0.6909813473170604
aF-85.13263134420775
aF-9.952899992209993
aF-1490.6465366377693
aa(lp82
F-16.07683838555139
aF1.042543199005076
aF-3.8330056574188758
aF-13.318912683010236
aa(lp83
F-7.142775102118362
aF-2.220747696812462
aF0.27102326575549607
aF-9.872551389096552
aa(lp84
F-2.4746488669888373
aF-2.1941834748445332
aF-2.538181316917479
aF0.6850432568272149
aa(lp85
F-0.5241110970726622
aF-108.66407472073544
aF3.20051394557672
aF0.24214603412746902
aa(lp86
F-43.309459255385086
aF4.062724224344226
aF-30.937177504069727
aF-16.352529598388717
aa(lp87
F7.920835073270549
aF8.48087613726075
aF7.77013704135326
aF-0.04457428622293058
aa(lp88
F-3.073468079598885
aF7.088310847502434
aF6.162880572088461
aF-3.8061549551175733
aa(lp89
F-3.8152265893522177
aF-623.4252759876829
aF2.9328155627206027
aF-11.739191013588789
aa(lp90
F-8.890670630635283
aF1.7894854078286067
aF-5.255717592300784
aF-12.25761406125405
aa(lp91
F-46.79652288752895
aF-138.42930514992702
aF-0.08350531810870251
aF-22.479393816554563
aa(lp92
F-1324.6652745090996
aF-60.77565154324762
aF-18.51587345097081
aF-0.22724312687642406
aa(lp93
F-63.78238578738517
aF0.7558283475078131
aF-93.84679630616772
aF-0.5264242477089786
aa(lp94
F-0.9377992786027831
aF1.1435664691769645
aF-0.6291190540895918
aF-2.8525156912668224
aa(lp95
F-73.99451896199979
aF-35.46706931500482
aF-11.20903044939204
aF-0.6957835764310584
aa(lp96
F-25.87279418232539
aF0.9327752959996464
aF-4.7312667248293705
aF-1050.086574943823
aa(lp97
F-1.5613644526423864
aF1.1659941102252038
aF3.729664543101871
aF-0.9958795655814399
aa(lp98
F4.480911033956963
aF-26.60492464450999
aF-28.042646006466693
aF29.829773862596113
aa(lp99
F-33.361381393443416
aF8.40795403923903
aF-401.8192908838925
aF-1036.7444803273952
aa(lp100
F4.599786522660675
aF0.7044484987787204
aF8.32554295388799
aF-52.58444959361231
aa(lp101
F-9.512552848833604
aF-51.38945321482331
aF-5.261189643135614
aF0.4904242631830831
aa(lp102
F-2.9232175242614837
aF1.8623979708573493
aF-1.2011953421213994
aF-1.4289891873944611
aa(lp103
F-1.4632697335901679
aF0.8586059014106503
aF-2.9368882041032327
aF-7.411377835152864
aa(lp104
F-1.7781897006133993
aF-0.5673906516264697
aF-0.5594976650259714
aF0.15472493405343296
aa(lp105
F-0.45091270631841057
aF-0.3202842216606931
aF0.017731072270982643
aF0.6013953249158324
aa(lp106
F0.19071608220334127
aF1.4770468183980558
aF0.06679408668171864
aF0.24745405360326433
aa(lp107
F0.15496868943025324
aF0.1930115648956626
aF1.2086039966597077
aF-0.1947785620333294
aa(lp108
F-8.354590223305195
aF0.9294849465353603
aF0.21270035622719252
aF-2.747951455356532
aa(lp109
F1.6547167754888046
aF2.6283496404124245
aF2.3306871004736407
aF1.683913681527879
aa(lp110
F2.5661735427179115
aF1.9848278927662857
aF2.4102961013645543
aF7.780813446813386
aa(lp111
F0.0
aF0.0
aF0.0
aF0.0
aa(lp112
F0.5961695689459059
aF0.8662026629209096
aF8.697130109452818
aF0.07459615798299454
aa(lp113
F-3.1915202997351293
aF-2.8636989271098567
aF-2.045944177057195
aF1.7563559949690843
aa(lp114
F-0.7100976680794621
aF3.0434416967857842
aF-1.6275394504004033
aF0.5162980768710038
aa(lp115
F-0.8970423743451322
aF1.6027461399470029
aF-0.4744628949003148
aF-0.1753861777373247
aa(lp116
F-0.11258118311725449
aF1.2513026669756755
aF-0.01591625983207343
aF0.34551851055376875
aa(lp117
F-0.17482157499240703
aF-0.459835140369517
aF-0.1244564260026068
aF1.3927201808388308
aa(lp118
F0.1777953323987106
aF0.6074493249385963
aF1.622339575362534
aF0.4742274552683538
aa(lp119
F0.3239360234596573
aF-0.11695079555388793
aF-0.14592904891293745
aF0.96754864258172
aa(lp120
F-3.439318836394871
aF1.0567754266172693
aF0.39850370315581213
aF0.371964756614301
aa(lp121
F1.270396063909764
aF0.5592274327213298
aF3.1007764570287977
aF0.3986880345798531
aa(lp122
F4.939821525424675
aF2.085266344092426
aF3.2968148650946594
aF2.146718205907305
aa(lp123
F8.70768441195043
aF3.345312875756021
aF4.5903365862987355
aF4.214716446857827
aa(lp124
F4.804939221401858
aF2.8902997237382024
aF6.4271061242739504
aF1.3879087302172521
aa(lp125
F0.5480766139628854
aF2.182696990749709
aF1.6625526455624178
aF3.2660125193219307
aa(lp126
F0.9354392976093421
aF1.5751530496582422
aF2.7528818350361095
aF1.3321699538241198
aa(lp127
F-0.003845124425718209
aF-0.2305659157455439
aF2.720849411861829
aF0.6133397722381649
aa(lp128
F0.3708845315843576
aF0.43183899887668553
aF0.5968600471434254
aF2.00255017604938
aa(lp129
F0.3391427765644859
aF1.0280961795451329
aF2.0228184961959035
aF0.015347635877687178
aa(lp130
F-0.14057188395564243
aF1.6184300320051024
aF0.4773187895799569
aF0.38133990921660993
aa(lp131
F1.0404291660256608
aF0.01884183349448561
aF0.09725121098212833
aF-3.165004850374213
aa(lp132
F-1.6003310208948134
aF1.1593027954816875
aF0.17055116354787692
aF0.16048404761448262
aa(lp133
F1.0037099806268859
aF1.1080787457619097
aF0.7244842610909809
aF4.64074847362522
aa(lp134
F4.533132332559285
aF3.777142025426882
aF2.5996922162561353
aF3.3258217758996085
aa(lp135
F2.2706552557095185
aF1.67776603925907
aF4.293452684119769
aF2.3004974055092506
aa(lp136
F4.963621962901204
aF2.9442599373837512
aF2.1552979401850054
aF2.1567848490384023
aa(lp137
F2.6883177372009914
aF2.3432778797267453
aF3.831738227228547
aF1.9552787907634142
aa(lp138
F1.9711446334854832
aF2.20628505111284
aF3.567534600118855
aF2.3109350073336756
aa(lp139
F1.818088751119792
aF1.3207558068916936
aF2.5985137356792585
aF1.6228767975609684
aa(lp140
F1.0929650017495218
aF1.4954863413914548
aF2.346987025757819
aF1.3164454129969005
aa(lp141
F1.2804901692140649
aF1.0369788551084254
aF2.111639915395016
aF0.539793309986246
aa(lp142
F0.4209975398661109
aF0.9409528273801281
aF1.6996150145527282
aF0.5933680666221101
aa(lp143
F0.3575452548458536
aF-0.9036211574857294
aF1.4598644550008375
aF0.07682242337445282
aa(lp144
F0.3815846730434312
aF0.3509264017649454
aF1.1639970085746627
aF0.3754564927208225
aa.