(lp0
(lp1
F0.28052114488639135
aF0.2063044248678345
aF0.26304349155842605
aF0.2501309386873482
aa(lp2
F0.22957413000993498
aF0.22449802512048084
aF0.2839088569821125
aF0.2620189878874715
aa(lp3
F0.2326420107398312
aF0.23100972131721503
aF0.24090338042645143
aF0.2954448875165023
aa(lp4
F0.20390413846446398
aF0.2275168853865712
aF0.2533922790978181
aF0.3151866970511468
aa(lp5
F0.2244285905544457
aF0.22199224868896458
aF0.24888108428028566
aF0.30469807647630387
aa(lp6
F0.22631871690707256
aF0.21147571808082238
aF0.23514034021709787
aF0.3270652247950071
aa(lp7
F0.25930628450220383
aF0.21134824594562712
aF0.19486299708422294
aF0.3344824724679461
aa(lp8
F0.23997439401500786
aF0.21506795889449346
aF0.2084752897752418
aF0.3364823573152569
aa(lp9
F0.24195808086249582
aF0.19419296055127314
aF0.1954850121066601
aF0.36836394647957094
aa(lp10
F0.2796292293773902
aF0.23037177778019036
aF0.2305635369244938
aF0.2594354559179255
aa(lp11
F0.23693072590279146
aF0.2368535701934308
aF0.22001265234265865
aF0.3062030515611191
aa(lp12
F0.26579434734810614
aF0.2600134210345571
aF0.19595818933269413
aF0.27823404228464277
aa(lp13
F0.309301725673181
aF0.19494316929996977
aF0.253702029387205
aF0.24205307563964415
aa(lp14
F0.2550029596409998
aF0.2137064046158375
aF0.27585499693087484
aF0.2554356388122878
aa(lp15
F0.25830554381474885
aF0.21981563503118584
aF0.23397427963302186
aF0.28790454152104333
aa(lp16
F0.22727568947791074
aF0.21733181975667276
aF0.24705859174566003
aF0.30833389901975644
aa(lp17
F0.24941920822116567
aF0.21143275254982835
aF0.24194867306553558
aF0.2971993661634704
aa(lp18
F0.2513833067141123
aF0.20130715437357327
aF0.22846661381654748
aF0.3188429250957669
aa(lp19
F0.286700762727675
aF0.20026137459885496
aF0.18846244631715697
aF0.32457541635631315
aa(lp20
F0.26605655581628573
aF0.2043466458444514
aF0.2021823720491978
aF0.32741442629006523
aa(lp21
F0.2680443113717671
aF0.18436678626035655
aF0.18943471520298358
aF0.3581541871648927
aa(lp22
F0.3084922704184481
aF0.2178079531956562
aF0.222501010148716
aF0.2511987662371797
aa(lp23
F0.26293162699214223
aF0.2252600199707191
aF0.21357417661018055
aF0.29823417642695804
aa(lp24
F0.293944036296845
aF0.2464321790901635
aF0.18956666556330126
aF0.2700571190496902
aa(lp25
F0.32482995084611943
aF0.20106477359714237
aF0.251808455809883
aF0.22229681974685522
aa(lp26
F0.2687173077667433
aF0.22116795383203708
aF0.27472862924548375
aF0.23538610915573582
aa(lp27
F0.27273933432486946
aF0.22794332137034554
aF0.23348275707414506
aF0.2658345872306399
aa(lp28
F0.24079893259073135
aF0.22614090894464126
aF0.2473854655692359
aF0.28567469289539144
aa(lp29
F0.2637615215997353
aF0.21958772054013584
aF0.24181176840792165
aF0.2748389894522072
aa(lp30
F0.26634418120978276
aF0.20946922787182762
aF0.2287716311306164
aF0.2954149597877733
aa(lp31
F0.3032828638457005
aF0.20805131273605543
aF0.18841544197774687
aF0.3002503814404973
aa(lp32
F0.28179725422852353
aF0.21256147226341723
aF0.202385188261656
aF0.30325608524640324
aa(lp33
F0.2847473213605517
aF0.19234902157531109
aF0.19018894404462894
aF0.33271471301950833
aa(lp34
F0.32392680739697244
aF0.22461077231457804
aF0.220804152226371
aF0.23065826806207856
aa(lp35
F0.277704223543436
aF0.23365658116124002
aF0.21318715896853233
aF0.27545203632679177
aa(lp36
F0.3089982346699358
aF0.2544151713297786
aF0.18833279906853054
aF0.24825379493175492
aa(lp37
F0.30490561202448435
aF0.22125788797472085
aF0.24980684344343562
aF0.22402965655735918
aa(lp38
F0.2508848697962364
aF0.2420775152564746
aF0.27108620686866963
aF0.23595140807861936
aa(lp39
F0.2543872252044521
aF0.2492457810732341
aF0.23015849303546113
aF0.26620850068685264
aa(lp40
F0.2241900849799654
aF0.2468279858483371
aF0.2434224867616078
aF0.2855594424100897
aa(lp41
F0.24608307865007295
aF0.24017720369340867
aF0.23843632276699733
aF0.27530339488952105
aa(lp42
F0.24871774147469972
aF0.22931750382507257
aF0.225782559088018
aF0.2961821956122098
aa(lp43
F0.2837905251909065
aF0.22823061550254428
aF0.1863336036034861
aF0.30164525570306316
aa(lp44
F0.2632441064971195
aF0.23278761514436766
aF0.19981371541302917
aF0.3041545629454836
aa(lp45
F0.2664997088982198
aF0.21104763748205266
aF0.18812522361703923
aF0.33432743000268844
aa(lp46
F0.3032295112455034
aF0.24649526327948895
aF0.2184522296126113
aF0.23182299586239644
aa(lp47
F0.25888798517152306
aF0.25536469255144684
aF0.2100463422074562
aF0.27570098006957394
aa(lp48
F0.2880184759661983
aF0.2780102300843042
aF0.18553035739239734
aF0.2484409365571001
aa(lp49
F0.29127931344291974
aF0.23688617536261394
aF0.25238485405106825
aF0.21944965714339817
aa(lp50
F0.23875103658965086
aF0.2581796318491864
aF0.2728305185761054
aF0.23023881298505733
aa(lp51
F0.24225078917935586
aF0.2660078466153165
aF0.2317990440026592
aF0.2599423202026684
aa(lp52
F0.21329869093778772
aF0.26318608094020945
aF0.2449329516066372
aF0.2785822765153656
aa(lp53
F0.23442927189859675
aF0.25642395877999813
aF0.24022446532746547
aF0.2689223039939396
aa(lp54
F0.23728042273940406
aF0.2451822787395174
aF0.22780343372700645
aF0.2897338647940721
aa(lp55
F0.271326458139974
aF0.24454843320205913
aF0.1884083602220914
aF0.2957167484358754
aa(lp56
F0.2513483981504022
aF0.24910019367492187
aF0.201770417631484
aF0.2977809905431919
aa(lp57
F0.2550734673866945
aF0.22638402182317283
aF0.19042778192496876
aF0.3281147288651637
aa(lp58
F0.2892804694831424
aF0.2635438919374244
aF0.22040369048148636
aF0.22677194809794685
aa(lp59
F0.24657874749699837
aF0.2725846063158348
aF0.21157950780297013
aF0.26925713838419657
aa(lp60
F0.27415963693404344
aF0.2965791900124038
aF0.18677247861012228
aF0.2424886944434306
aa(lp61
F0.27081415495727656
aF0.24386058926937793
aF0.26182017400508967
aF0.22350508176825576
aa(lp62
F0.2208103321563482
aF0.2643846806702685
aF0.28154328525411354
aF0.23326170191926965
aa(lp63
F0.22427028956179942
aF0.27267239669327403
aF0.23943976855418614
aF0.26361754519074043
aa(lp64
F0.19692070173802342
aF0.26903345342773344
aF0.25230653596316677
aF0.2817393088710763
aa(lp65
F0.21686771610994415
aF0.26265268968195793
aF0.2479581587899178
aF0.2725214354181802
aa(lp66
F0.2196388220102581
aF0.2512907254762017
aF0.23528029967191758
aF0.2937901528416227
aa(lp67
F0.25210053681059785
aF0.25158612971126465
aF0.19532592734335538
aF0.3009874061347819
aa(lp68
F0.23305474476388308
aF0.25573847862531834
aF0.2087456434969282
aF0.3024611331138705
aa(lp69
F0.23669612405752272
aF0.2326011278711165
aF0.19716701867136593
aF0.3335357293999948
aa(lp70
F0.2689920610210224
aF0.27133979262828284
aF0.22867427524619063
aF0.23099387110450406
aa(lp71
F0.22843492108832228
aF0.27960720897252395
aF0.2187049216038477
aF0.27325294833530617
aa(lp72
F0.2546596585888381
aF0.30502644673175
aF0.19357426491337718
aF0.2467396297660348
aa(lp73
F0.2674360630279202
aF0.2498385612104025
aF0.27546364999816686
aF0.20726172576351057
aa(lp74
F0.21774121953798073
aF0.27047478758441124
aF0.2957869536980109
aF0.21599703917959717
aa(lp75
F0.22209343406195087
aF0.2801395278410733
aF0.25262297207197837
aF0.24514406602499741
aa(lp76
F0.19508650327235363
aF0.27651034086140686
aF0.2663035349979616
aF0.2620996208682778
aa(lp77
F0.21483951447693858
aF0.2699419310295664
aF0.2617039272538076
aF0.25351462723968743
aa(lp78
F0.21813602492723944
aF0.2589190414073117
aF0.2489524670065565
aF0.2739924666588925
aa(lp79
F0.25113403110695787
aF0.2600086120105329
aF0.20730237272434113
aF0.2815549841581681
aa(lp80
F0.23194329674735292
aF0.26405183820637695
aF0.2213369279345122
aF0.28266793711175786
aa(lp81
F0.23639503377067522
aF0.2410062248047636
aF0.2097944777855091
aF0.3128042636390521
aa(lp82
F0.26605577199047853
aF0.27842995219724004
aF0.24097007604793214
aF0.2145441997643493
aa(lp83
F0.22659545881852625
aF0.2877440234976481
aF0.23113187539977278
aF0.2545286422840529
aa(lp84
F0.2523774917830981
aF0.31361527284006274
aF0.20438577528979493
aF0.22962146008704437
aa(lp85
F0.26490287089017167
aF0.24715772304674066
aF0.27623137591043884
aF0.21170803015264883
aa(lp86
F0.2155723975844716
aF0.26744058284463357
aF0.2964650688609089
aF0.22052195070998598
aa(lp87
F0.21980216088439938
aF0.27689725563913314
aF0.253111042631824
aF0.2501895408446436
aa(lp88
F0.1929395608633103
aF0.27311997217015055
aF0.26663245219252296
aF0.2673080147740162
aa(lp89
F0.21254174113679042
aF0.2667156152161932
aF0.2621092368075605
aF0.25863340683945574
aa(lp90
F0.21569725704559567
aF0.25569912317868043
aF0.24921585936307092
aF0.27938776041265295
aa(lp91
F0.24839530346676136
aF0.25684644909644305
aF0.20757932694783415
aF0.2871789204889614
aa(lp92
F0.22936772865438612
aF0.2607880602802354
aF0.2215880727324971
aF0.2882561383328813
aa(lp93
F0.23357894090436435
aF0.23783272776631778
aF0.20986083816425102
aF0.31872749316506677
aa(lp94
F0.2635972373321313
aF0.2755066858762144
aF0.2416981342457535
aF0.21919794254590066
aa(lp95
F0.22425388903273932
aF0.28440885514716874
aF0.23157444867848265
aF0.2597628071416095
aa(lp96
F0.2500519817956664
aF0.3103308179716133
aF0.20500873319424326
aF0.234608467038477
aa(lp97
F0.25779510624201285
aF0.2458884337024071
aF0.2876075622479544
aF0.2087088978076256
aa(lp98
F0.20938457839949762
aF0.2655551700569195
aF0.30808060624014233
aF0.21697964530344058
aa(lp99
F0.21399866329977743
aF0.27559647945096516
aF0.2636510384958484
aF0.24675381875340885
aa(lp100
F0.18764735943203942
aF0.2715504596829704
aF0.27744280659251846
aF0.2633593742924716
aa(lp101
F0.2068268858282046
aF0.26533046171342733
aF0.2728879603792373
aF0.25495469207913074
aa(lp102
F0.21007676189434557
aF0.2545883592353319
aF0.2596858935773478
aF0.2756489852929747
aa(lp103
F0.24258029826291888
aF0.25642574302730775
aF0.21688800578207829
aF0.2841059529276949
aa(lp104
F0.22376194664563076
aF0.26008633379500706
aF0.23128080400857348
aF0.28487091555078886
aa(lp105
F0.22807823861859192
aF0.2374092814070706
aF0.21924053797776336
aF0.31527194199657416
aa(lp106
F0.2569456030631888
aF0.27454174497839634
aF0.2520652192780361
aF0.21644743268037878
aa(lp107
F0.21859103221299242
aF0.28340752849599216
aF0.241502864779599
aF0.2564985745114162
aa(lp108
F0.24411986319107873
aF0.3097231262286514
aF0.21413342800810045
aF0.23202358257216923
aa(lp109
F0.26312835581297517
aF0.2362737900884003
aF0.3228850687604731
aF0.17771278533815157
aa(lp110
F0.2138205818053348
aF0.2552960176647279
aF0.3460380479208695
aF0.18484535260906762
aa(lp111
F0.2207785484678938
aF0.26767261562476735
aF0.29917822243558967
aF0.21237061347174904
aa(lp112
F0.19381991645547914
aF0.26405290582663177
aF0.31519846355090886
aF0.2269287141669803
aa(lp113
F0.21334330733836865
aF0.25765798584494665
aF0.3096072229682368
aF0.21939148384844803
aa(lp114
F0.21762047137643226
aF0.2482817160312015
aF0.2958862400167193
aF0.2382115725756469
aa(lp115
F0.25280624756652287
aF0.2515813038213701
aF0.24861223072220043
aF0.24700021788990667
aa(lp116
F0.23292839971240864
aF0.25488143785488926
aF0.26480761991832524
aF0.24738254251437683
aa(lp117
F0.23864227132155444
aF0.23385447298515832
aF0.25231267074526087
aF0.27519058494802623
aa(lp118
F0.26401614431097686
aF0.2655719166756066
aF0.2848766782467535
aF0.18553526076666305
aa(lp119
F0.22651794441461445
aF0.2764815260861057
aF0.2752626179096869
aF0.22173791158959294
aa(lp120
F0.25302984868903966
aF0.3022224600223745
aF0.24412248692570712
aF0.20062520436287878
aa(lp121
F0.2398329162702079
aF0.22220900905447347
aF0.32677989773832256
aF0.211178176936996
aa(lp122
F0.19394878311015903
aF0.238938740924576
aF0.3485199470800896
aF0.21859252888517533
aa(lp123
F0.19961145233410146
aF0.2497109011630347
aF0.30034803307829355
aF0.2503296134245701
aa(lp124
F0.17428027482423392
aF0.24498853665006995
aF0.31470247596282064
aF0.2660287125628754
aa(lp125
F0.1923733965963158
aF0.23972568902671024
aF0.3099868761028472
aF0.2579140382741266
aa(lp126
F0.1955418599475162
aF0.23019172737427498
aF0.2952099546527585
aF0.2790564580254502
aa(lp127
F0.2276576240895326
aF0.23376405847071788
aF0.24858969468773293
aF0.28998862275201664
aa(lp128
F0.2093784666762893
aF0.23640287773664956
aF0.26430555069778244
aF0.28991310488927874
aa(lp129
F0.21328797329968194
aF0.2156600259970207
aF0.25039421344279245
aF0.32065778726050487
aa(lp130
F0.2408367164906217
aF0.24996507847614344
aF0.28854618969593676
aF0.22065201533729825
aa(lp131
F0.20471063031572084
aF0.2578154146265512
aF0.2762175402338982
aF0.26125641482382983
aa(lp132
F0.23055170907464811
aF0.2841373363913316
aF0.2469850178225936
aF0.23832593671142674
aa(lp133
F0.2273838373822971
aF0.23674909375488984
aF0.40682151463509447
aF0.12904555422771855
aa(lp134
F0.18279965299169706
aF0.2530758698715693
aF0.43133403099565
aF0.13279044614108368
aa(lp135
F0.19268258534022412
aF0.27087590281634544
aF0.38069710941430823
aF0.15574440242912216
aa(lp136
F0.16850243477945306
aF0.2661825416310483
aF0.399535966608946
aF0.16577905698055265
aa(lp137
F0.1858597441691114
aF0.26027398228999005
aF0.3932614771807769
aF0.1606047963601216
aa(lp138
F0.19138424069287324
aF0.25318152012075323
aF0.3793981478952668
aF0.17603609129110664
aa(lp139
F0.2268221892347462
aF0.26173206812463495
aF0.3252252351849027
aF0.18622050745571608
aa(lp140
F0.20751965328703137
aF0.26330301766520975
aF0.34397848445816603
aF0.18519884458959285
aa(lp141
F0.21520207035572578
aF0.24452630781812573
aF0.3317432863268114
aF0.20852833549933694
aa(lp142
F0.23094182879896083
aF0.2693612396740969
aF0.36332311045049276
aF0.13637382107644946
aa(lp143
F0.19961570600409276
aF0.282513400815591
aF0.3536741706518565
aF0.16419672252845974
aa(lp144
F0.2243201370386386
aF0.31067340690974793
aF0.31555008535239065
aF0.1494563706992229
aa.