(lp0
(lp1
F0.1680536248143927
aF0.14959503535350074
aF0.26217510295523205
aF0.4201762368768744
aa(lp2
F0.20163636814300342
aF0.10214056394871472
aF0.24388229854171664
aF0.4523407693665653
aa(lp3
F0.17752772455013352
aF0.222832204387974
aF0.25347565964457835
aF0.3461644114173141
aa(lp4
F0.2712870625767958
aF0.09484947196659106
aF0.288588563627631
aF0.34527490182898224
aa(lp5
F0.10527108098216036
aF0.1797557670538646
aF0.30277542198073976
aF0.4121977299832352
aa(lp6
F0.15629140617693577
aF0.1586049170959767
aF0.3320702945375047
aF0.35303338218958297
aa(lp7
F0.3871631791954241
aF0.08992207006188344
aF0.11743345942904426
aF0.40548129131364813
aa(lp8
F0.20030924429641306
aF0.09916398147985157
aF0.18901587228026417
aF0.5115109019434712
aa(lp9
F0.1683606566346516
aF0.08286731028687383
aF0.3067066556172167
aF0.4420653774612579
aa(lp10
F0.2734936145735278
aF0.20539898810768742
aF0.20230592949972923
aF0.3188014678190556
aa(lp11
F0.1106790713376491
aF0.0589832075564593
aF0.07707001034538274
aF0.7532677107605089
aa(lp12
F0.1466701398573631
aF0.2332668516697057
aF0.32135844297218585
aF0.29870456550074526
aa(lp13
F0.2815737837036239
aF0.21242235215657326
aF0.2150597861351791
aF0.29094407800462363
aa(lp14
F0.33914746662223194
aF0.14559842017577063
aF0.20082761024602966
aF0.3144265029559678
aa(lp15
F0.2802183993042837
aF0.29808980179908334
aF0.19588002610577218
aF0.2258117727908607
aa(lp16
F0.42678643890921514
aF0.12646057319476506
aF0.22227165064443594
aF0.2244813372515839
aa(lp17
F0.1827003350029803
aF0.26439412102590937
aF0.25726121071701535
aF0.295644333254095
aa(lp18
F0.2608414239612434
aF0.22433488395003548
aF0.27132819213086395
aF0.2434954999578573
aa(lp19
F0.5623790032476333
aF0.11069806937596156
aF0.08351227890570272
aF0.24341064847070262
aa(lp20
F0.3404993235409831
aF0.14285910232553456
aF0.15730298565188525
aF0.35933858848159705
aa(lp21
F0.2946251611472409
aF0.12289979690686237
aF0.26277004322819636
aF0.3197049987177004
aa(lp22
F0.4031660085471441
aF0.2566100835415205
aF0.1460053466983289
aF0.1942185612130066
aa(lp23
F0.21714468539876233
aF0.09807329902204871
aF0.07402740833954408
aF0.6107546072396449
aa(lp24
F0.2346198551482613
aF0.3162385313418404
aF0.251672753501984
aF0.1974688600079143
aa(lp25
F0.29075226721490127
aF0.21385147286042966
aF0.23696852420396425
aF0.2584277357207048
aa(lp26
F0.35113218072179697
aF0.14696700982970817
aF0.22187380837110315
aF0.28002700107739176
aa(lp27
F0.287667672372753
aF0.29834768256285005
aF0.21457796673504353
aF0.1994066783293534
aa(lp28
F0.43533602803751303
aF0.1257622458158236
aF0.2419349632428597
aF0.1969667629038037
aa(lp29
F0.18848609430982477
aF0.2659334114775966
aF0.2832140809391074
aF0.26236641327347127
aa(lp30
F0.26656133338650756
aF0.2235108140141877
aF0.29588031472372733
aF0.21404753787557743
aa(lp31
F0.5804901259420344
aF0.11140044480912285
aF0.09198492006503212
aF0.21612450918381065
aa(lp32
F0.3558960237327003
aF0.14557806360593994
aF0.17544637896537016
aF0.32307953369598974
aa(lp33
F0.30378277405770693
aF0.12354512549687884
aF0.28911440064250044
aF0.2835576998029139
aa(lp34
F0.4129891576635185
aF0.25627698039965124
aF0.15959675694131514
aF0.17113710499551502
aa(lp35
F0.2367667201121003
aF0.10425655664405094
aF0.08613200557456875
aF0.5728447176692799
aa(lp36
F0.2390773665957244
aF0.31417355384600704
aF0.2736594583057932
aF0.17308962125247548
aa(lp37
F0.27535586558413117
aF0.21437792067835068
aF0.22941520371479351
aF0.28085101002272456
aa(lp38
F0.33287355234832905
aF0.1474772740134433
aF0.21501809249427636
aF0.3046310811439512
aa(lp39
F0.2735386406700714
aF0.3002941557338052
aF0.20858019092016963
aF0.21758701267595382
aa(lp40
F0.4178678748801783
aF0.12777951767262855
aF0.2373959572139648
aF0.21695665023322835
aa(lp41
F0.1777210874574636
aF0.2654172455121122
aF0.2729824947519975
aF0.2838791722784268
aa(lp42
F0.25356766498697864
aF0.22505664777506745
aF0.2877220202472061
aF0.23365366699074783
aa(lp43
F0.5579213179601871
aF0.11333436882192272
aF0.09037640547302396
aF0.23836790774486624
aa(lp44
F0.3357228935443728
aF0.14536181813778853
aF0.1691852668799783
aF0.3497300214378604
aa(lp45
F0.2878097518067591
aF0.12389807604806131
aF0.280009260968863
aF0.3082829111763167
aa(lp46
F0.39566057584391284
aF0.2598904452223218
aF0.1563034271258405
aF0.1881455518079248
aa(lp47
F0.2167138126799392
aF0.1010103551715529
aF0.08059179048529583
aF0.601684041663212
aa(lp48
F0.22769031085169517
aF0.31671767269493306
aF0.26642615629369315
aF0.18916586015967857
aa(lp49
F0.23228413036945098
aF0.27541774889370657
aF0.22427904623334505
aF0.26801907450349755
aa(lp50
F0.28913470407946157
aF0.195088960714507
aF0.2164398543574017
aF0.29933648084862996
aa(lp51
F0.2244433718445936
aF0.3752508137106705
aF0.19833641446259465
aF0.20196939998214117
aa(lp52
F0.3688086142610423
aF0.17175523331587184
aF0.24281565730573865
aF0.21662049511734718
aa(lp53
F0.14574016706035037
aF0.3314790619672102
aF0.25942773049764745
aF0.26335304047479197
aa(lp54
F0.21235395323379436
aF0.2870416957700145
aF0.27924208814402457
aF0.22136226285216667
aa(lp55
F0.5049437518730372
aF0.15621341957650572
aF0.09479084786663416
aF0.24405198068382283
aa(lp56
F0.2922362754190545
aF0.1927037540780624
aF0.1706699276154471
aF0.3443900428874361
aa(lp57
F0.2503238097151878
aF0.16411484982134386
aF0.28223466041035555
aF0.3033266800531128
aa(lp58
F0.33376620188105943
aF0.33388472700377286
aF0.15280211847686928
aF0.1795469526382984
aa(lp59
F0.18933435096240483
aF0.13439879749391836
aF0.08159713755306232
aF0.5946697139906146
aa(lp60
F0.18469492622011002
aF0.3912635354469508
aF0.25045434549595436
aF0.17358719283698482
aa(lp61
F0.18368678438334832
aF0.33438421400909074
aF0.22135871336524007
aF0.2605702882423209
aa(lp62
F0.2356809225841061
aF0.24414755158594892
aF0.22019679336060916
aF0.2999747324693358
aa(lp63
F0.1731257493566924
aF0.4443978969041232
aF0.19094438379343967
aF0.19153196994574484
aa(lp64
F0.3068592508282106
aF0.21940353141133268
aF0.252153151998668
aF0.22158406576178868
aa(lp65
F0.11191615588504202
aF0.39080948302111596
aF0.24864484950692167
aF0.24862951158692043
aa(lp66
F0.16671935727766984
aF0.34599206181333714
aF0.27362520732795076
aF0.21366337358104212
aa(lp67
F0.4341246853256873
aF0.20619839899400452
aF0.10171556982176902
aF0.25796134585853914
aa(lp68
F0.23865576159968652
aF0.24161475108210706
aF0.17395797894217566
aF0.3457715083760309
aa(lp69
F0.20393573225052658
aF0.20527427038463505
aF0.286979624902298
aF0.30381037246254045
aa(lp70
F0.26535010093793215
aF0.4075387645927867
aF0.15161976723346626
aF0.175491367235815
aa(lp71
F0.15410338050213152
aF0.1679475234664587
aF0.08289097042404646
aF0.5950581256073635
aa(lp72
F0.14083702075915291
aF0.4580645788547778
aF0.23836362715640716
aF0.16273477322966218
aa(lp73
F0.2212281066163645
aF0.2587719289791764
aF0.2757700323349517
aF0.24422993206950736
aa(lp74
F0.2760436698204315
aF0.18374466653775728
aF0.266779473016846
aF0.2734321906249652
aa(lp75
F0.2149976564602567
aF0.35461169992983727
aF0.24528274969926023
aF0.18510789391064575
aa(lp76
F0.3482646341336682
aF0.16000102813286843
aF0.2960210622929496
aF0.19571327544051376
aa(lp77
F0.13753601916682073
aF0.3086013094473291
aF0.316075759585501
aF0.2377869118003491
aa(lp78
F0.1988646608368674
aF0.2651836396048538
aF0.3376103462772626
aF0.19834135328101613
aa(lp79
F0.49751420692714315
aF0.15183968704845657
aF0.12057756215470539
aF0.2300685438696949
aa(lp80
F0.2831230639377186
aF0.184177162190066
aF0.21346945270592568
aF0.3192303211662899
aa(lp81
F0.23464539818789376
aF0.15176171915288195
aF0.3415527886939971
aF0.27204009396522705
aa(lp82
F0.32335142431912717
aF0.319104884109892
aF0.19111703712155723
aF0.16642665444942367
aa(lp83
F0.19005003987347177
aF0.13308784998143883
aF0.10574286684523419
aF0.5711192432998551
aa(lp84
F0.1742219446754169
aF0.36410089228202164
aF0.3050099943328499
aF0.15666716870971162
aa(lp85
F0.16658599679288918
aF0.24768272602434474
aF0.30955156822375507
aF0.27617970895901084
aa(lp86
F0.2094553546688411
aF0.1772183885608463
aF0.3017545549579333
aF0.31157170181237925
aa(lp87
F0.16419930960039825
aF0.3442476842833937
aF0.2792494689903738
aF0.2123035371258344
aa(lp88
F0.2706379104661056
aF0.15804559533949752
aF0.34291747638873926
aF0.22839901780565755
aa(lp89
F0.10127350105809954
aF0.2888401120216697
aF0.3469431468689271
aF0.26294324005130365
aa(lp90
F0.1487316712775307
aF0.2521000532755374
aF0.3763997624733851
aF0.2227685129735468
aa(lp91
F0.40921907553137754
aF0.15875084633855804
aF0.14784431558546712
aF0.2841857625445973
aa(lp92
F0.21532744246663793
aF0.17804930218987122
aF0.24201797249337595
aF0.364605282850115
aa(lp93
F0.17442729585660194
aF0.14339863274851242
aF0.37848440648951676
aF0.303689664905369
aa(lp94
F0.2558580421369428
aF0.3209505407129406
aF0.22542986296216533
aF0.19776155418795122
aa(lp95
F0.13826640422923817
aF0.12307432967547936
aF0.11467996013820086
aF0.6239793059570816
aa(lp96
F0.13129202764050993
aF0.3487687846730661
aF0.34263941331403464
aF0.1772997743723895
aa(lp97
F0.14894528559979026
aF0.2572606609207343
aF0.304862544071877
aF0.2889315094075983
aa(lp98
F0.1883130102671459
aF0.18509173823934735
aF0.2988308871154705
aF0.3277643643780362
aa(lp99
F0.14659194314413074
aF0.3570254661279676
aF0.27460846600778
aF0.2217741247201216
aa(lp100
F0.24621255452596458
aF0.1670295655774436
aF0.3436322950165115
aF0.24312558488008046
aa(lp101
F0.08989016806923267
aF0.2978264505551023
aF0.33920127271112427
aF0.27308210866454063
aa(lp102
F0.1331703820956375
aF0.2622204254201065
aF0.37122423394676385
aF0.2333849585374922
aa(lp103
F0.37577253711975056
aF0.1693458697231198
aF0.1495397290883664
aF0.305341864068763
aa(lp104
F0.19305583608146942
aF0.1854441856268875
aF0.23900883902998368
aF0.38249113926165956
aa(lp105
F0.156682769005231
aF0.14963775815514252
aF0.37448771274033993
aF0.3191917600992865
aa(lp106
F0.23083363792199588
aF0.3363779565106274
aF0.22402385282980844
aF0.20876455273756822
aa(lp107
F0.12153532088425612
aF0.12567321191675832
aF0.11103404661197304
aF0.6417574205870125
aa(lp108
F0.11708673107603049
aF0.3613235978971758
aF0.3365808746746933
aF0.18500879635210032
aa(lp109
F0.2479687087532775
aF0.181453760498078
aF0.22656538584070382
aF0.3440121449079408
aa(lp110
F0.29677396415167623
aF0.1235819316073554
aF0.21022788815688542
aF0.3694162160840831
aa(lp111
F0.2531633387235261
aF0.261223582216013
aF0.2117015347829549
aF0.2739115442775059
aa(lp112
F0.38216999632461857
aF0.10984042854899277
aF0.23810018796651988
aF0.2698893871598689
aa(lp113
F0.1597234086618381
aF0.22420335967317376
aF0.2690501398485926
aF0.34702309181639557
aa(lp114
F0.23084336012257003
aF0.19257447920928292
aF0.287253568557422
aF0.2893285921107251
aa(lp115
F0.5128997105111714
aF0.09792746195408475
aF0.09111363598985865
aF0.2980591915448853
aa(lp116
F0.2961613929011594
aF0.12052612758627239
aF0.16367367844609387
aF0.41963880106647433
aa(lp117
F0.25455160260504434
aF0.10299550316427267
aF0.27158860337513574
aF0.37086429085554734
aa(lp118
F0.3707275982769173
aF0.22887893422991462
aF0.16060884362657357
aF0.2397846238665946
aa(lp119
F0.17786295746026765
aF0.07791986388452106
aF0.07253682410044433
aF0.671680354554767
aa(lp120
F0.21183447208380568
aF0.27695407063683347
aF0.2718302345547403
aF0.23938122272462048
aa(lp121
F0.1685388113245594
aF0.3650369645728484
aF0.31785545284020267
aF0.14856877126238954
aa(lp122
F0.2229339861496131
aF0.2747725144462283
aF0.32596717701139694
aF0.17632632239276178
aa(lp123
F0.15461651156706074
aF0.4722100893645019
aF0.2668775995510942
aF0.10629579951734303
aa(lp124
F0.27890854036029994
aF0.23726586887903833
aF0.3586724530449221
aF0.12515313771573955
aa(lp125
F0.09987841345160829
aF0.414966470239914
aF0.3472716634539388
aF0.1378834528545388
aa(lp126
F0.1463259742318047
aF0.36130219037634215
aF0.37583959360542346
aF0.11653224178642978
aa(lp127
F0.4345848827789769
aF0.24559215236851747
aF0.15935239651666114
aF0.1604705683358445
aa(lp128
F0.23553841972013917
aF0.28371502873498183
aF0.2686861101932453
aF0.21206044135163368
aa(lp129
F0.18777232260986992
aF0.22487533924649805
aF0.4135236423380876
aF0.17382869580554455
aa(lp130
F0.24198189363700645
aF0.4421825513269518
aF0.2163866526062262
aF0.0994489024298156
aa(lp131
F0.18057038152702073
aF0.2341407562921583
aF0.15200315530971206
aF0.4332857068711089
aa(lp132
F0.12141144383264227
aF0.4698276446347093
aF0.3215835380251334
aF0.08717737350751528
aa(lp133
F0.35241469500056427
aF0.122702659950057
aF0.3762581524188924
aF0.14862449263048622
aa(lp134
F0.4159241954916853
aF0.08240892369308996
aF0.3442817047818591
aF0.1573851760333656
aa(lp135
F0.3575254853942246
aF0.17552922961062878
aF0.3493537639456879
aF0.11759152104945869
aa(lp136
F0.4808979643896913
aF0.0657641853713976
aF0.3500993613935911
aF0.10323848884532007
aa(lp137
F0.2327371665210297
aF0.15544264032682112
aF0.4581056251886852
aF0.1537145679634641
aa(lp138
F0.3094060317155104
aF0.12281205437726621
aF0.4498959161750178
aF0.11788599773220558
aa(lp139
F0.677928333601412
aF0.061586667649249235
aF0.14072457286700124
aF0.11976042588233747
aa(lp140
F0.44049991761088686
aF0.0852961573525903
aF0.28446671674548163
aF0.18973720829104113
aa(lp141
F0.3469647113740887
aF0.06679725411469666
aF0.43256984635417856
aF0.15366818815703615
aa(lp142
F0.5008504367399298
aF0.14712613874372707
aF0.2535466192566304
aF0.09847680525971265
aa(lp143
F0.3529849684485619
aF0.07357830233294908
aF0.16821490278374066
aF0.4052218264347483
aa(lp144
F0.2885953157515119
aF0.1795276190682508
aF0.4327385968077257
aF0.09913846837251146
aa.