(lp0
(lp1
F0.0
aF0.0
aF0.0
aF0.0
aa(lp2
F0.0
aF0.0
aF0.0
aF0.0
aa(lp3
F-0.0008697014374544813
aF-0.07824243130246097
aF0.0
aF0.0
aa(lp4
F-0.11695155826117055
aF-0.09684189424676697
aF-0.08442026662455675
aF-0.106251667481264
aa(lp5
F-0.12310220448043194
aF-0.7779480200023077
aF-0.04882096456961353
aF-0.130964165006985
aa(lp6
F-1.4432398927096586
aF-1.6434043936990874
aF-1.337535713110312
aF-0.566824760264829
aa(lp7
F-0.784438858506125
aF-1.7850076263658883
aF-0.8806782095388658
aF-0.5880153371901844
aa(lp8
F-0.3940804776344496
aF-0.6032587759504578
aF-0.8985125341715965
aF-0.5410195692856167
aa(lp9
F-0.40350067801626494
aF-0.340957140706859
aF-0.40223173983852933
aF-0.08804244240947903
aa(lp10
F-0.15299997907372972
aF-0.3091501975420511
aF-0.18379952959463444
aF-0.06373502467641307
aa(lp11
F-0.11224147935698639
aF-0.03990684373145864
aF-0.2920945325917239
aF0.049983018308524814
aa(lp12
F-0.0008172427318669535
aF0.10156576443287443
aF-0.03249859541274299
aF-0.013063646508852545
aa(lp13
F0.0
aF0.0
aF0.007967006485855783
aF0.0
aa(lp14
F-0.0068378201228336995
aF-0.03784651382859471
aF0.008879223045870336
aF0.0
aa(lp15
F-0.015287986770599817
aF-0.8128166658720373
aF-0.08463438313777832
aF-0.05621599111468989
aa(lp16
F-0.11096170769243598
aF-0.932961140659347
aF-0.3070230644813786
aF-0.34075494119977584
aa(lp17
F-0.8899158161485787
aF-3.1447577922322862
aF-0.4739583927202767
aF-1.4572876457014652
aa(lp18
F-1.4095353857982498
aF-3.401156268611423
aF-1.0416695801462055
aF-1.6577026546510072
aa(lp19
F-0.5916615798375899
aF-2.3764903192176443
aF-1.7749337166426722
aF-1.3363526080551453
aa(lp20
F-0.760665203591729
aF-1.7398055415878462
aF-1.0288362109473959
aF-0.26962451493060885
aa(lp21
F-0.5293458044635743
aF-0.8148111125273784
aF-0.9650739318250287
aF-0.08517272779223489
aa(lp22
F-0.18885894165411907
aF-0.2140271636193136
aF-0.4336460747875585
aF0.07163850911068965
aa(lp23
F-0.07935398659134847
aF-0.07126281817457877
aF-0.17428516645646847
aF0.08304509400688138
aa(lp24
F0.007064390443936193
aF-0.02129148112098974
aF-0.010946072795903917
aF0.1161802523660518
aa(lp25
F0.0
aF0.04804328840858877
aF0.0
aF0.00043663936573607294
aa(lp26
F-0.1842720214227439
aF-0.14517141454533714
aF-0.0004681996027916281
aF-0.32874626898961823
aa(lp27
F-1.0716374865009075
aF-0.45678357480529636
aF-0.012696140191095055
aF-1.3362185564624933
aa(lp28
F-0.7429152265019638
aF-2.984232507822222
aF-1.3973514494238615
aF-1.285648873672432
aa(lp29
F-2.8675151076562027
aF-2.232574894467386
aF-1.701021664796051
aF-2.779550290397951
aa(lp30
F-1.5441187972900472
aF-5.736291448427447
aF-3.430128934289469
aF-3.0453611865570456
aa(lp31
F-2.177577588430953
aF-5.324888813166881
aF-3.9252335211358926
aF-2.238712244436524
aa(lp32
F-0.7219158830131402
aF-4.084430031402766
aF-1.8330250799699668
aF-1.7059356409863835
aa(lp33
F-0.8889562206138523
aF-2.349663848437732
aF-2.032930453370433
aF-0.1916178734822624
aa(lp34
F-0.6226168349564594
aF-0.347176792028144
aF-0.9180834248062697
aF0.089824372568188
aa(lp35
F-0.0956967461387983
aF0.22307443655129455
aF-0.38365570327817744
aF-0.1459438522215915
aa(lp36
F0.015086507712011634
aF0.21278715923409292
aF-0.06679680367743186
aF-0.016564990045548122
aa(lp37
F0.03368762794555127
aF0.0382592175742644
aF0.0
aF-0.1531337808662818
aa(lp38
F-0.10768519700874969
aF-0.28263304465212075
aF-0.06359022619288525
aF-0.644184655604127
aa(lp39
F-1.827375892197148
aF-1.255579555771297
aF-0.12490319401234976
aF-1.7184327499643994
aa(lp40
F-1.9159270181732675
aF-3.005354779141639
aF-1.618708431658504
aF-5.117090881299173
aa(lp41
F-3.641775535530272
aF-4.876573596962937
aF-3.1524676769928384
aF-3.8947166589699145
aa(lp42
F-3.995001822298348
aF-5.823351810885951
aF-4.42507323476472
aF-4.490350402970503
aa(lp43
F-4.0611628331991785
aF-6.24591781262363
aF-5.474495176305963
aF-3.7816519701320526
aa(lp44
F-2.7882459351023376
aF-3.8162746203914435
aF-4.937117716906239
aF-2.4919356470679674
aa(lp45
F-1.40062277081162
aF-1.8971590612705198
aF-4.0050530807260705
aF-0.2799671069980086
aa(lp46
F-0.20197243271402077
aF-0.6241312103042788
aF-1.0149045806634056
aF-0.4789011358872272
aa(lp47
F-0.002984465152872314
aF0.2521844075646795
aF-0.07186056206339969
aF-0.05387030725544076
aa(lp48
F0.0338579916631032
aF0.3402760176353833
aF-0.11204879526992881
aF0.03998479833201221
aa(lp49
F0.0
aF0.5347391079616658
aF0.022842222326424903
aF0.015271095739173726
aa(lp50
F-0.47997434382259296
aF0.3162507349799677
aF-0.41889697022206396
aF-1.0202255866631034
aa(lp51
F-1.0464379261581618
aF-0.9228426324887193
aF-0.20163786682553053
aF-2.584271799554406
aa(lp52
F-2.4453633790813285
aF-2.681278597144875
aF-1.8819834658780774
aF-3.3168342769214467
aa(lp53
F-4.633338723705964
aF-4.197115823770693
aF-4.072054179541593
aF-4.704765541058054
aa(lp54
F-5.880585969756719
aF-5.605446347320248
aF-6.133852500215493
aF-6.560225538243175
aa(lp55
F-5.092411232357751
aF-5.263008357659288
aF-5.219453100304873
aF-4.993736520076129
aa(lp56
F-4.28268006552827
aF-3.6533106170044687
aF-4.434163029322762
aF-2.2374181343212456
aa(lp57
F-2.1484761447418386
aF-1.221559380269869
aF-4.328587543899597
aF-0.14554651975185268
aa(lp58
F-0.3488756476772249
aF-0.3700986223327949
aF-2.38773649571013
aF0.21135276335459896
aa(lp59
F0.04114997921828652
aF0.4002727220508656
aF-0.5223628332767749
aF0.05629283059187616
aa(lp60
F0.15555395359038954
aF0.18443588452598125
aF0.12860169455871853
aF0.3273427127371965
aa(lp61
F0.0
aF0.8377119303581354
aF-0.2869885103760839
aF-0.17867616449479282
aa(lp62
F-0.4173451998260915
aF1.5550800445235056
aF-0.43884761225655855
aF-1.1415482560184822
aa(lp63
F-2.2357499375018453
aF0.1408793028144168
aF-1.2299714694021762
aF-1.7588632632148435
aa(lp64
F-3.200341486623721
aF-0.2788473419915005
aF-1.7346016489987015
aF-5.56874890317866
aa(lp65
F-3.48004924147889
aF-5.961059070529311
aF-3.346779683845115
aF-3.323358077862149
aa(lp66
F-5.798670746884457
aF-6.26066820293916
aF-4.796690507698971
aF-5.94619140280154
aa(lp67
F-7.334727206930685
aF-3.226022493598838
aF-6.171108321237417
aF-4.4875365323762875
aa(lp68
F-3.934588380370112
aF-2.186140982353038
aF-4.509818661980216
aF-1.8099714422096695
aa(lp69
F-2.044913257974533
aF-1.6543356471415602
aF-4.397407598131869
aF-1.1606630318774758
aa(lp70
F-1.0857379111630212
aF-0.12596254179010372
aF-1.3745608835617427
aF-0.3413720588756765
aa(lp71
F-0.14338910949659808
aF0.47109362929470056
aF-0.04599858918077451
aF0.2099839968139965
aa(lp72
F0.01157534191499619
aF0.5576237354918102
aF0.12940774230930363
aF0.23562241959510857
aa(lp73
F0.0
aF2.0423173625715267
aF0.5559459397655694
aF0.1344838993616936
aa(lp74
F-0.0809186349206234
aF-0.6507166189226893
aF1.4884161700438758
aF-1.376734419666352
aa(lp75
F-0.623396740899483
aF-0.6467554746661233
aF0.2384325563459742
aF0.0
aa(lp76
F-2.258930914655751
aF-2.7681916339971204
aF0.04451576212338071
aF-1.168845764601828
aa(lp77
F-5.12030143802608
aF-0.8301781920772568
aF-3.440869112974161
aF-2.3621975307631096
aa(lp78
F-5.150404365427071
aF-2.8260585634411783
aF-3.0066631181355903
aF-2.1376448500291994
aa(lp79
F-5.931914667972526
aF-2.0653189730992074
aF-2.5768978689249264
aF-2.606709156826584
aa(lp80
F-3.2405745401659902
aF-2.154783640499101
aF-2.607354530040205
aF-3.9700259183107973
aa(lp81
F-1.2674079284405746
aF-0.8238423311581757
aF-1.38955257031918
aF-1.3601745800983647
aa(lp82
F-0.17247776844310966
aF0.2724028268132326
aF-1.1403130848226508
aF-0.14999324979373188
aa(lp83
F0.026666899652135284
aF0.2977218951021883
aF0.0009069860719873087
aF0.5997763837381215
aa(lp84
F0.0626792627334741
aF0.6925674851748643
aF0.13610473303816178
aF0.22062098406802164
aa(lp85
F0.0
aF2.8967899417963765
aF0.1073894844100786
aF0.0
aa(lp86
F0.4344284630759827
aF6.355256862222647
aF0.43724953201250444
aF1.6435271338298094
aa(lp87
F2.4881107829178797
aF8.564112451128025
aF3.852827634729383
aF-1.105027439274823
aa(lp88
F-0.37118810241338274
aF3.459604686768178
aF0.5734421942275223
aF-0.9102709401355152
aa(lp89
F-2.9113652587675722
aF2.1591777406889556
aF-1.9320630902990297
aF-1.6488900877148225
aa(lp90
F-0.7972228812701966
aF-1.7360166111505433
aF-3.2725151324807564
aF-1.7076650534628401
aa(lp91
F-3.3934628715423862
aF-0.33588285146295743
aF-1.4300039834504084
aF-0.9058320981212155
aa(lp92
F-2.755742131583795
aF-0.6439903809012183
aF-1.436117554708048
aF-0.051674335504843426
aa(lp93
F-0.5447561164673383
aF0.12335383924421878
aF0.0
aF-0.11727245428751153
aa(lp94
F-0.14085515250661554
aF0.5298203173671128
aF-0.5099290059944659
aF0.11487590103089398
aa(lp95
F0.007616727982775709
aF0.6805140475108724
aF0.12445558643130132
aF0.1663885883058503
aa(lp96
F0.26632321659779806
aF0.8177375032272597
aF0.32193685553097484
aF0.2619981157525936
aa(lp97
F-0.22020611956904143
aF0.6789152983139519
aF0.021148886367591713
aF4.078868731921877
aa(lp98
F1.4517640122023818
aF1.7642402329380418
aF0.8652243973056759
aF7.4596605072744095
aa(lp99
F2.5793820827032845
aF9.267638220630385
aF0.5942553792170185
aF4.613820356901182
aa(lp100
F0.04800704730554156
aF5.124398779261672
aF4.7538277167591145
aF1.446573505308586
aa(lp101
F-0.6197605842652241
aF-2.7955677456455024
aF0.9351100853439163
aF0.4589257397523645
aa(lp102
F-1.0523475419090549
aF0.05614575357628847
aF0.09453162969910864
aF-1.6697349872714484
aa(lp103
F-3.3011492068670023
aF-0.016308488086434758
aF0.493458782591891
aF-0.010968803350274864
aa(lp104
F0.009558841247166069
aF0.6940469685852421
aF-1.1214836050717116
aF0.00842825059013851
aa(lp105
F-0.429881350090585
aF-0.018239828296617862
aF0.391229997985496
aF-0.0186797793275082
aa(lp106
F-0.10842029530692494
aF0.9602766561483903
aF0.1383567262962773
aF0.05100629117918389
aa(lp107
F0.1273662913467829
aF0.9485098778310576
aF0.11549576921460682
aF0.18667113586458764
aa(lp108
F0.19354492094996537
aF0.8879735498363324
aF0.11961806954410635
aF0.31585414275611345
aa(lp109
F0.6192157669236704
aF0.7666500062233064
aF1.6202600105750657
aF5.137278394415235
aa(lp110
F1.5617417487682808
aF1.491771649608831
aF2.150612387847951
aF8.137502387642202
aa(lp111
F0.0
aF0.0
aF0.0
aF0.0
aa(lp112
F5.493867281768978
aF2.8589016879463944
aF7.506313591088396
aF1.1058669448681568
aa(lp113
F1.3522349904123878
aF0.20124119087013345
aF3.359395961659245
aF0.38426047279189474
aa(lp114
F0.25333361817443945
aF1.6880030331093994
aF0.38933986711355295
aF0.36705386042145216
aa(lp115
F-2.334031596195815
aF1.5315117406510155
aF0.11326950366317597
aF0.12058761396486127
aa(lp116
F-0.13533761344986717
aF0.1906586037475049
aF0.9936617536594283
aF0.16233998103197814
aa(lp117
F0.02436328951456522
aF0.9692921096961414
aF-0.154721234279723
aF0.01805441555639826
aa(lp118
F0.04642253883599667
aF1.4144408028036668
aF0.13216734047755466
aF0.21350256137872742
aa(lp119
F0.38111607784196866
aF0.6195133541227513
aF1.3127359089291248
aF0.28290918167253
aa(lp120
F0.2656696830148505
aF0.35215365162522055
aF1.162689535811665
aF0.36709317011988907
aa(lp121
F0.622799845921289
aF0.8610657537822739
aF1.1756566594894808
aF3.1477997858136706
aa(lp122
F5.418620237799204
aF3.3115433969957446
aF1.9610563527945681
aF4.462231872502591
aa(lp123
F9.153798295398206
aF5.244779297883503
aF5.109135696948476
aF4.919560324734025
aa(lp124
F3.578275296520576
aF2.423359595399002
aF6.323968149074051
aF1.5232474033133339
aa(lp125
F0.8004565273142247
aF2.1163936599747126
aF4.360400608623106
aF1.5591938905817184
aa(lp126
F1.0493449758710642
aF1.1229734938245952
aF3.3523321604918905
aF1.3815729080704675
aa(lp127
F0.7451763496212798
aF0.9612070814866371
aF2.8867858494114214
aF0.4425253972682404
aa(lp128
F0.6894968678217244
aF0.6468494935932402
aF2.2357064826017234
aF0.255886818844449
aa(lp129
F0.7019966739842656
aF2.073236967365788
aF1.0850709592244894
aF0.6400246121566718
aa(lp130
F0.5905821089586618
aF0.8657548785767171
aF1.768251294792222
aF0.6580779604964687
aa(lp131
F0.3625975921952702
aF0.5029351811419
aF1.6280075858560654
aF0.2926757618506977
aa(lp132
F0.12639961349468487
aF0.26127740373160496
aF1.1241554347182678
aF0.30113642058401563
aa(lp133
F1.2109429182267506
aF1.4116342079114568
aF1.217795299737451
aF3.6383190676422625
aa(lp134
F3.4893084786400035
aF3.0064381115834404
aF2.5034155959549493
aF5.1606362922915086
aa(lp135
F5.728601547872632
aF5.142896640169021
aF4.175147087332874
aF4.2756733048781035
aa(lp136
F4.295010295658449
aF4.062899753348064
aF5.312657455525729
aF3.5247210347594753
aa(lp137
F2.8664006389715775
aF3.42375841062124
aF4.479714458379088
aF3.1412839485185335
aa(lp138
F2.5658446239946615
aF3.013625843961701
aF3.935112888904516
aF2.476807782687352
aa(lp139
F1.969730424314172
aF2.1800566299151254
aF3.299434950839968
aF1.706081120164635
aa(lp140
F1.8593857540713554
aF1.7442284956781577
aF2.807661529532518
aF1.6404270055259873
aa(lp141
F1.4737608474453707
aF1.3824850814429133
aF2.4381538218846797
aF1.2832207133498614
aa(lp142
F0.8899321300103233
aF0.9281583870156777
aF2.117963476167753
aF0.7033910870281834
aa(lp143
F0.3030693409767387
aF0.5378722141253321
aF1.6431732303948667
aF0.5517114818592364
aa(lp144
F0.08848951697792659
aF0.0248405393703383
aF1.1462653402095915
aF0.006365683043672645
aa.