(lp0
(lp1
F1.4554719924095634e-07
aF0.05781071254175573
aF0.0087128158983459
aF0.0
aa(lp2
F0.30566945013522134
aF0.0
aF0.03195534949439476
aF-0.1650107913589119
aa(lp3
F-0.011996931977438601
aF-0.6529140232732832
aF0.4026916199374668
aF0.007438678044380289
aa(lp4
F-0.8071075898681005
aF-0.9834449861700234
aF0.22234503413166862
aF-0.5718375393617279
aa(lp5
F-1.678869541050771
aF-1.1670060774758464
aF-0.44522732390145175
aF-0.8838070438382735
aa(lp6
F-2.086365316305695
aF-2.340427080024467
aF-0.6961369853709594
aF-1.6503614461625067
aa(lp7
F-1.347601685750166
aF-1.5739547775102953
aF-1.7752496211278668
aF-0.2852827945252922
aa(lp8
F-0.9005527055575344
aF-1.8839946060213169
aF-0.9203829145816258
aF-0.09496655527207339
aa(lp9
F-0.023462862774069906
aF-0.1928753408373694
aF-0.5055669038185449
aF-0.19971990183079757
aa(lp10
F-0.22894816969628382
aF-0.6757244870899943
aF-0.9755928022165452
aF0.02853849543844472
aa(lp11
F0.009845095801909164
aF-0.003782356618343047
aF-0.158108178938202
aF0.5288767614252736
aa(lp12
F0.13563725366256027
aF0.6018793091321797
aF0.018005031958089012
aF0.13659583488768814
aa(lp13
F4.9908134619723936e-08
aF2.738727332685215e-05
aF0.0
aF0.2959126169544693
aa(lp14
F0.04307534129297927
aF1.3097735975717983
aF0.0
aF-0.03047133099599703
aa(lp15
F-0.3001701860986122
aF-1.3297102477393858
aF0.7830450774613478
aF-0.0632718526549816
aa(lp16
F-0.04030351477862053
aF-2.657754437564245
aF-0.6965893061072499
aF-0.9629126146730185
aa(lp17
F-1.2392373603789708
aF-4.206291698653601
aF-0.560923733048831
aF-2.1416906790877124
aa(lp18
F-2.9647233007094185
aF-5.33100089739074
aF-3.4599161576032147
aF-1.6794354146256412
aa(lp19
F-2.2416666820364783
aF-3.8700482520318085
aF-3.8669488635349216
aF-1.1064620083321643
aa(lp20
F-1.1683013849166717
aF-2.1099280426792375
aF-2.125811698252381
aF-0.03437542901977053
aa(lp21
F-0.9065229036453291
aF-1.7742712891186712
aF-1.8787243375595417
aF0.19230871105540182
aa(lp22
F-0.1729650028583309
aF-0.7708212664720241
aF-0.6926240807426381
aF0.3845152188189594
aa(lp23
F-0.24038408132482791
aF-0.26197276120345225
aF-0.18495184005784057
aF0.453358456651208
aa(lp24
F0.14778239815286123
aF0.6935214704323154
aF0.16474984222867134
aF0.20595393997907327
aa(lp25
F9.930159724670035e-06
aF0.0
aF0.0
aF0.017929132613977727
aa(lp26
F0.2395872861998076
aF1.7998166457196632
aF-1.5022035309051065
aF0.07775706097967526
aa(lp27
F-0.14646883842222128
aF-2.8426353609283694
aF0.8107669654894382
aF-2.3838234249039845
aa(lp28
F-0.7580614100433448
aF-3.271735252556333
aF-0.5835989156282713
aF-4.550720129552332
aa(lp29
F-1.206864680058879
aF-4.702620114993305
aF-2.0857426346534123
aF-4.53899225690541
aa(lp30
F-3.3706984372350184
aF-5.610885902131322
aF-4.169895676810663
aF-3.9141694897066146
aa(lp31
F-2.3719206713936853
aF-5.434470110280449
aF-4.676859673063142
aF-3.454249113370397
aa(lp32
F-0.8849472041220966
aF-3.2031389232296514
aF-3.6672905321131952
aF-2.5279784027891092
aa(lp33
F-0.9087071316708446
aF-2.144728899070579
aF-2.8148702278463165
aF-0.03570991442638021
aa(lp34
F-0.8432159327828622
aF-0.1876921699718841
aF-2.4551848352780117
aF0.3842411864249162
aa(lp35
F0.015641966247601308
aF-0.21916689682262658
aF-0.27522198334879155
aF0.6182017396499603
aa(lp36
F0.2027160346349726
aF0.7657969636568064
aF0.2082522874726835
aF0.45449139993803445
aa(lp37
F0.007319118793695863
aF0.0017677412868691224
aF0.16607060381705324
aF0.0
aa(lp38
F-0.6072899398795689
aF3.0879219730790677
aF0.0
aF-0.36408639918782865
aa(lp39
F-0.06259478156519285
aF-0.9448230859984957
aF1.0004665600324585
aF-3.5287088826040254
aa(lp40
F-1.702359546358011
aF-4.959496541154479
aF-1.1755901734972258
aF-6.605498851495802
aa(lp41
F-3.5992507185613327
aF-5.500932211887223
aF-5.29738818186321
aF-5.948629702460314
aa(lp42
F-5.730596408599128
aF-7.423567043385731
aF-5.904743502554229
aF-5.7977958683861
aa(lp43
F-4.944505493017604
aF-4.838161457428212
aF-5.9211112695162775
aF-4.182749425509243
aa(lp44
F-2.790825775701807
aF-4.289891707038709
aF-5.026553179830248
aF-1.8032770757874192
aa(lp45
F-1.9755853587245342
aF-3.0560106951382444
aF-4.1236428218789225
aF-0.19985702383661316
aa(lp46
F-0.773436140604637
aF-0.6117821467884417
aF-1.2626079650464264
aF0.2669190655550473
aa(lp47
F-0.09232359964830536
aF0.522749522490175
aF-0.4963889213841994
aF-0.0005739496260983053
aa(lp48
F0.1435072362724874
aF0.8702761351619578
aF0.15590030994290494
aF0.42305540678014997
aa(lp49
F0.041674182799290894
aF0.0814682150376966
aF0.04705964593159996
aF0.44967573002426386
aa(lp50
F0.254319820040331
aF3.194140201347968
aF0.08936212279552383
aF0.0
aa(lp51
F-1.2921901505975344
aF-1.2129081770912933
aF0.741906255346466
aF-4.035862609099206
aa(lp52
F-4.9679527033301225
aF-3.449512865894514
aF-2.029686584073464
aF-5.311660127819835
aa(lp53
F-5.680473389745441
aF-5.339670742317731
aF-4.783702207220961
aF-6.158619641510475
aa(lp54
F-5.808677894782412
aF-5.620326854805631
aF-5.982340041772058
aF-5.877532623598099
aa(lp55
F-5.600933770400983
aF-4.676226649978048
aF-5.727895600107712
aF-4.65578302090965
aa(lp56
F-3.592753206972621
aF-3.3698078169928563
aF-5.743673170440942
aF-2.571814382717586
aa(lp57
F-1.6402162220104555
aF-1.624471273775506
aF-4.074934365933648
aF-0.23651748928027494
aa(lp58
F-1.2476681736151203
aF-0.05973210219956315
aF-2.6612638809268883
aF0.2714183435465509
aa(lp59
F0.0677349721876568
aF-0.08738323566030158
aF-0.27133938507507144
aF0.7883928704274931
aa(lp60
F0.31369090558532986
aF1.0294871454653391
aF0.3413966604181691
aF0.4128969869784531
aa(lp61
F0.009986949320256655
aF0.0
aF0.0
aF1.3792068773304103
aa(lp62
F0.0032281836088221792
aF4.400937973447474
aF0.09267045913571657
aF-0.4234206829491678
aa(lp63
F-1.3754313813780847
aF-0.06530267635216584
aF-4.75203647053019
aF-1.78426638219709
aa(lp64
F-3.8911823684124274
aF-2.376280602420711
aF-0.9234057635714354
aF-2.7622010176374747
aa(lp65
F-4.0130159461508805
aF-4.432188851571326
aF-3.849898126969015
aF-3.476396443918888
aa(lp66
F-6.504511104983264
aF-4.508657158817115
aF-4.724621275451488
aF-6.00674439527884
aa(lp67
F-5.447597626660622
aF-7.773452026239414
aF-5.212688873842852
aF-4.459135611733373
aa(lp68
F-2.9021151961345613
aF-2.681687824102881
aF-4.051344230317897
aF-1.1824315436145707
aa(lp69
F-1.591107718617589
aF-1.6757823345348482
aF-3.926885558752914
aF-0.2885860194893206
aa(lp70
F0.022004572052540874
aF0.023109270470876245
aF-2.064761142767144
aF0.5593213570071076
aa(lp71
F0.08124748832234986
aF0.92607979223178
aF0.07002087889681781
aF0.3277494965505824
aa(lp72
F0.539516633268652
aF1.1861503594356286
aF0.5208407623895361
aF0.5655271812468762
aa(lp73
F0.38536084988431457
aF0.0
aF0.0
aF0.0
aa(lp74
F0.47127454849597394
aF5.085231938737628
aF0.0
aF0.10106032678910622
aa(lp75
F-1.5153291460629856
aF-2.0777541300594256
aF2.1166488428891834
aF-0.46011364160344276
aa(lp76
F-3.114132842210186
aF-1.3999804512245342
aF-0.7416730699670996
aF-4.834618839860059
aa(lp77
F-7.7481444409833475
aF-4.053221865537559
aF-2.735196441381908
aF-3.6553419621868133
aa(lp78
F-3.5562178249652954
aF-2.8965683364422237
aF-4.671752575762913
aF-6.250928911407831
aa(lp79
F-6.908372609275219
aF-2.3604612053109695
aF-4.955165530383848
aF-1.3165518984905982
aa(lp80
F-3.1892603427945607
aF-1.569543718085968
aF-1.9831990045963395
aF-1.1286348840335907
aa(lp81
F-2.170890979309248
aF-0.39292487469742177
aF-2.2383032844348985
aF0.2752781005688993
aa(lp82
F0.18769818110410638
aF-0.14245369617683545
aF-1.4246566195023762
aF-0.07572430732369662
aa(lp83
F0.3149092199108316
aF1.1135600651855304
aF0.06845562602646735
aF0.2731099859936659
aa(lp84
F0.6771464137340247
aF1.3807060805504885
aF0.39290884203033377
aF0.667136925540175
aa(lp85
F0.0
aF0.6528903017811539
aF0.0
aF0.0
aa(lp86
F0.37121200139544436
aF5.64109030269928
aF0.008803614103168845
aF0.3407140556531763
aa(lp87
F0.0
aF2.6194833745415846
aF0.24845590537723006
aF-3.524184972212644
aa(lp88
F-6.073706579857553
aF0.8192345983189556
aF1.63486618934193
aF-1.9782336640065754
aa(lp89
F-4.857929954400863
aF-0.24094979234855413
aF-1.5668965971957154
aF-1.1745564723120896
aa(lp90
F-3.348894895524492
aF-1.3165922805978392
aF-0.7835854929866393
aF-0.97171023065473
aa(lp91
F-1.4101231533237812
aF1.1326403856956648
aF-1.7391487235173768
aF-0.870845592504533
aa(lp92
F-2.0512512868175885
aF0.5208869894481065
aF-0.7438867777939037
aF-0.7687213068451412
aa(lp93
F-1.6053302171862072
aF0.3832686765740307
aF-1.5343687432519548
aF0.0707575380450968
aa(lp94
F0.06569034591195971
aF0.7353467290388297
aF-0.7332934456544058
aF0.23371843535181125
aa(lp95
F0.26753566878469104
aF0.7970668485000455
aF0.11336496654862434
aF1.185083514967826
aa(lp96
F0.398683610039938
aF1.5628135397278196
aF0.7489208522517687
aF0.7091265768966566
aa(lp97
F0.4798759117659835
aF1.6076865277390155
aF4.05683041925993
aF0.0
aa(lp98
F1.0444158921578373
aF6.892969053295426
aF0.7295843182214958
aF3.266923416038325
aa(lp99
F0.0
aF-0.2162697707931208
aF4.948230854328223
aF-0.6514996919371986
aa(lp100
F0.3873137932607211
aF2.3555544912889768
aF0.5978332569208094
aF0.33514162964822586
aa(lp101
F-1.530590108629523
aF2.120201222091295
aF-0.9444152855622757
aF-0.41800044091343547
aa(lp102
F-3.217119167242815
aF1.5369378439319639
aF-0.5191816961068642
aF-0.3520879443381229
aa(lp103
F-1.5135181175427883
aF0.972100330676014
aF-2.181579522739928
aF0.4633489043846656
aa(lp104
F-0.6240066186065656
aF1.4707069425012516
aF-0.042977638739512415
aF-0.04158088229487127
aa(lp105
F-0.6946434430344547
aF0.3691235401515143
aF0.949952823520983
aF0.1053962354952764
aa(lp106
F0.11228772604101442
aF0.0261641073801909
aF-0.029111777242615475
aF0.9713315227626994
aa(lp107
F0.23677882834299474
aF1.5771166974507689
aF0.5109374225925091
aF0.6553188359007188
aa(lp108
F0.7983940986820046
aF1.6785721761956833
aF1.013894467395634
aF0.6866617792509141
aa(lp109
F1.1962625458729592
aF9.253835309590285
aF4.439225526191419
aF4.819747746002939
aa(lp110
F4.782876838213755
aF8.463982636725131
aF3.3261178086330703
aF1.8675903794158826
aa(lp111
F0.9016217018152982
aF6.679095030252437
aF4.86843270034646
aF1.6926849594174933
aa(lp112
F1.158988892696781
aF4.552896670333102
aF2.23633732584358
aF2.1186666210010534
aa(lp113
F0.7354489681412835
aF4.143774936230593
aF0.0596634391350493
aF2.304459906896639
aa(lp114
F-0.3307951183151595
aF0.893929092655603
aF3.620780026064528
aF0.27701792816786724
aa(lp115
F0.5435523240696272
aF0.6205589783082034
aF2.7929932705216154
aF0.5763537538721937
aa(lp116
F0.39705774286127876
aF0.6118758672596755
aF1.8214654652531261
aF0.3988517466685381
aa(lp117
F0.2535871871839504
aF1.689476885843654
aF0.41550005121355127
aF0.23149116194003289
aa(lp118
F0.2970117841818371
aF0.8023432604916845
aF1.396884730471212
aF0.17347633380363636
aa(lp119
F0.5916269096442144
aF1.9257785694776122
aF0.7600134452461319
aF0.9539327888938878
aa(lp120
F0.9702901154367856
aF0.9845494067870685
aF1.889848068606732
aF1.1004676481050923
aa(lp121
F5.031991533405796
aF9.873555789972908
aF7.710882584715919
aF6.227282356515856
aa(lp122
F5.95645818784752
aF7.376553933018476
aF9.18196495155832
aF6.177245649685986
aa(lp123
F4.942347726670209
aF5.66197157884251
aF7.9305282193747395
aF4.222530679536128
aa(lp124
F3.589507821678976
aF4.516884560009544
aF7.08526361172457
aF3.820900812129566
aa(lp125
F2.696704427090234
aF3.365359197083994
aF6.080485475348633
aF2.3377445717575993
aa(lp126
F2.8066397329873745
aF2.668437374166482
aF4.68723099996568
aF2.655757482816501
aa(lp127
F1.5300629312345388
aF1.9550969086987886
aF3.455526750554831
aF1.9937354671188436
aa(lp128
F0.9169569890986515
aF3.2307881183358953
aF1.5892455051470202
aF1.364250194729053
aa(lp129
F1.2606736230993851
aF2.939046546153871
aF1.7818665769383442
aF0.8929695565078543
aa(lp130
F1.249628349430674
aF1.1218382597966645
aF2.5860411602557765
aF1.3078038352421244
aa(lp131
F1.1407710303689356
aF1.4324171145115991
aF2.3285367630796916
aF1.2435277410311218
aa(lp132
F1.216816135962076
aF0.5675118535536688
aF1.9769855239666683
aF0.6928086826940437
aa(lp133
F0.0
aF0.0
aF0.0
aF0.0
aa(lp134
F8.07603838638674
aF8.696256087729996
aF9.806947187428445
aF7.3177466364288355
aa(lp135
F7.0015069606161235
aF7.371119396597767
aF8.664361980109833
aF6.507578567946591
aa(lp136
F5.770536469468763
aF6.454642053505226
aF7.48860423917914
aF5.335840984518908
aa(lp137
F5.1069815163031915
aF5.3195210611999855
aF6.446130429677381
aF4.335213569849275
aa(lp138
F4.0895571893830835
aF4.45314842149488
aF5.605224495313871
aF3.8422053633211086
aa(lp139
F2.9702309473217365
aF3.8534826166567493
aF4.7195326710127254
aF3.260715654529092
aa(lp140
F3.0608672116044517
aF3.151073562887502
aF3.9359397702105823
aF2.705514487119616
aa(lp141
F2.394240744369171
aF2.4573453269225327
aF3.46730766226387
aF2.295388551784222
aa(lp142
F2.074907994676147
aF2.1686356134039766
aF2.9678427945018937
aF1.6722599706886447
aa(lp143
F1.2739089166994937
aF1.3613523313325464
aF2.493108164883491
aF1.4270143730801934
aa(lp144
F0.5178740696938303
aF0.38177041650625804
aF2.074930675054284
aF0.4013706872642122
aa.