(lp0
(lp1
F0.0
aF0.0
aF9.409562359299006e-05
aF0.0
aa(lp2
F-0.005214714558561138
aF0.0
aF0.0
aF0.0
aa(lp3
F-0.1427750376487212
aF-0.2937173944759318
aF0.0
aF0.0
aa(lp4
F-0.539093928229441
aF-0.34340188514242637
aF-0.7094835487472463
aF-0.6089995536143474
aa(lp5
F-0.9493257813953527
aF-1.4191516214573883
aF-0.2972106367114439
aF-1.3767006943408333
aa(lp6
F-1.2120097621463464
aF-2.047153553252483
aF-0.4674157152276788
aF-1.4602117006858666
aa(lp7
F-0.9067616186439765
aF-1.5765473507835965
aF-1.4135570964909165
aF-1.1875992435923897
aa(lp8
F-0.6514240891145374
aF-1.2205203646887879
aF-2.023059719127464
aF-1.0932763508489838
aa(lp9
F-0.688798701650127
aF-0.9441465691416484
aF-1.2540360579606844
aF-0.09493552774254042
aa(lp10
F-0.473328181803058
aF-0.5076873679807805
aF-0.6038955154514037
aF0.015836364607612348
aa(lp11
F-0.10345956955038486
aF0.00851723642395449
aF-0.157280024686522
aF0.18767756393490206
aa(lp12
F-0.026063057606828196
aF0.2520793926977519
aF-0.026362902531312467
aF0.017353250523196372
aa(lp13
F0.003907081569076669
aF0.0
aF0.014176949930781535
aF0.0
aa(lp14
F-0.0014638794201382258
aF0.5884633241400975
aF0.020059159906346564
aF0.08346725661206665
aa(lp15
F-0.1611037830754699
aF-0.48545112336325813
aF0.36866741618083465
aF-0.2635008508655123
aa(lp16
F-0.6921999158386083
aF-2.2076712895223762
aF0.14437662300755466
aF-1.1708994982304728
aa(lp17
F-1.552102512326921
aF-2.7602744788832396
aF-0.16453997045381596
aF-1.415172602676427
aa(lp18
F-2.143685191281751
aF-3.4090861588486843
aF-1.0278131136289173
aF-1.799273541391734
aa(lp19
F-0.8980150948732962
aF-2.901882160444152
aF-2.082628605110438
aF-1.3567456229485202
aa(lp20
F-1.1376451556165812
aF-2.2098809543431757
aF-1.5636596941089462
aF-0.34599464311176514
aa(lp21
F-0.2196235898493991
aF-1.1773665948475223
aF-2.6107210772658465
aF-0.9162434497193547
aa(lp22
F-0.3017166298453673
aF-0.9741611842186408
aF-0.354321156971208
aF0.05642121493014123
aa(lp23
F-0.07568944698774802
aF-0.17832199893794076
aF-0.2597673603710692
aF0.16405421685956864
aa(lp24
F-0.014687844150380248
aF0.3059325253110739
aF-0.019882892999126024
aF-0.042526955830004876
aa(lp25
F0.0
aF0.13461475179063262
aF0.0
aF0.0
aa(lp26
F-0.012936412983443715
aF1.1008083368320698
aF0.01800784820617302
aF-0.6691415525170311
aa(lp27
F-0.4615786350301585
aF-1.3494830864644654
aF0.870494919899312
aF-0.5471659440393142
aa(lp28
F-1.8757495991379238
aF-4.193121207107324
aF-0.14915663786106895
aF-1.7240967805236518
aa(lp29
F-1.2027304680086341
aF-2.0225296112430224
aF-2.912870893867389
aF-4.708046284839315
aa(lp30
F-1.909115794292571
aF-5.5149747320395655
aF-3.253482926179849
aF-3.642212693629971
aa(lp31
F-1.4391297392065945
aF-5.220947233623495
aF-4.156750608399148
aF-4.111652009349826
aa(lp32
F-1.4849090914653298
aF-5.218118073618406
aF-3.4859407418076853
aF-2.3351439643194016
aa(lp33
F-0.6481252057023257
aF-1.667141421906842
aF-3.803993335713443
aF-0.22876766020688502
aa(lp34
F-0.34209409482137476
aF-0.5995468230866914
aF-1.0161760566219762
aF0.09259417190677935
aa(lp35
F-0.0746461314653014
aF-0.0944764755470431
aF-0.495207875238308
aF0.21898842298807641
aa(lp36
F0.0725434414247886
aF0.16655954842087797
aF0.07750588231527566
aF0.3211358346620216
aa(lp37
F0.008521781578563651
aF0.3480512842048265
aF0.07516926421322537
aF-0.40880409850860006
aa(lp38
F0.24313096357967293
aF1.8894137403790228
aF-0.08962344618239224
aF-1.2859231328223424
aa(lp39
F-0.05056391986768127
aF-1.2990746935620756
aF1.2012735831985963
aF-1.427615392540221
aa(lp40
F-2.008273047365657
aF-4.481968971034025
aF-1.4824851766982692
aF-3.322667687084442
aa(lp41
F-3.597972082838351
aF-5.2282685044975
aF-2.6262966436459196
aF-4.28354718670046
aa(lp42
F-5.694596520560851
aF-6.469313887195623
aF-5.520070150721602
aF-5.607141425899146
aa(lp43
F-4.406242251886092
aF-7.362403343642514
aF-5.068994116092821
aF-4.04586061810213
aa(lp44
F-2.9856377192796093
aF-4.22098788821482
aF-5.432834035629174
aF-2.6962446791333954
aa(lp45
F-1.8856087952464446
aF-1.6322282550329226
aF-5.433626571905382
aF-0.38048346020768586
aa(lp46
F-0.6706560694781741
aF-0.7716834577695166
aF-1.9890546938441798
aF0.08389468623707153
aa(lp47
F-0.6059224981227069
aF-0.20056573014900408
aF-0.30145514934969425
aF0.255872664454711
aa(lp48
F0.10697903464176389
aF0.4360345538019632
aF0.12723404393593798
aF0.23445395995975138
aa(lp49
F0.01655113427630321
aF0.000713942051113632
aF0.7268985147708168
aF-0.6932320791679959
aa(lp50
F0.2311478077342002
aF2.083299344990834
aF0.04751154023563351
aF-1.4101964661373965
aa(lp51
F-1.3962631317745227
aF-1.5457544848202232
aF1.082764452423566
aF-2.1899632830108087
aa(lp52
F-5.541309301833484
aF-3.524928687839552
aF-1.117947046783842
aF-3.713487789389324
aa(lp53
F-4.948118703969585
aF-4.488919625731379
aF-5.025120845991167
aF-4.702904788503386
aa(lp54
F-5.848010155552762
aF-5.75308193102906
aF-4.902417404019423
aF-6.100259150493684
aa(lp55
F-6.972754625429987
aF-7.269474099044101
aF-5.1351361843858765
aF-4.845192980678198
aa(lp56
F-4.922854790221254
aF-3.7403562210892347
aF-6.1690896547809775
aF-4.4154601396042095
aa(lp57
F-1.3326407035848737
aF-2.451401062204136
aF-4.1727330285981905
aF-0.4897531323550579
aa(lp58
F-1.7742932220465877
aF-0.17114428136334983
aF-1.9781931610196333
aF-1.1270002518606896
aa(lp59
F-0.05494112924144592
aF-0.0026197962096322796
aF-0.4610019707134597
aF0.2890820085951551
aa(lp60
F0.12940419702416114
aF0.49116370371880796
aF0.10363371785019805
aF0.006720754457476172
aa(lp61
F0.35710066304634464
aF2.0693042791753444
aF0.5200332920065996
aF0.33486774557993965
aa(lp62
F0.06469969455288713
aF3.0545936476127253
aF0.1288104132126415
aF-0.03907357444802107
aa(lp63
F-1.446179720416462
aF-1.3238454565525333
aF0.9177336762377618
aF-1.7303104744387405
aa(lp64
F-2.8700864783720292
aF-3.2208044278103807
aF-0.7983279106637501
aF-4.087657089304121
aa(lp65
F-3.4624579714975585
aF-2.4593647390326216
aF-1.568534369456992
aF-3.1673173470369758
aa(lp66
F-5.192915218329797
aF-5.220763605554396
aF-3.959885505160032
aF-6.384348249026214
aa(lp67
F-6.653698822272684
aF-3.5498410517082433
aF-6.151179307710015
aF-3.3717927637076035
aa(lp68
F-3.843276091719833
aF-4.975994999296012
aF-4.347102952174797
aF-2.7243952906308806
aa(lp69
F-2.0342263881123794
aF-2.0141771438176366
aF-3.613455816339449
aF-0.6513200185538464
aa(lp70
F-0.9688336406029254
aF-0.01873770282099763
aF-1.4466955735916052
aF-1.1418536133146968
aa(lp71
F-0.19078573501223303
aF0.3758284503115678
aF-0.4754695848242755
aF-0.04139367519945216
aa(lp72
F0.1606988677874263
aF0.6176091419464516
aF0.13748572663360326
aF0.11404316123130857
aa(lp73
F0.5545855863797571
aF3.5427398251648428
aF0.6189375960695166
aF0.6958162993168554
aa(lp74
F0.49057337280134683
aF0.6653711673804138
aF3.0787749642886086
aF-1.2845764917363478
aa(lp75
F-1.0666491882361613
aF0.5444447652803672
aF-1.2159712236925946
aF-2.8418057058765
aa(lp76
F-3.0163520084147186
aF2.7025734462686857
aF-1.2863450016927116
aF-2.2281032134522736
aa(lp77
F-3.500831807294046
aF-1.834650886665317
aF-2.2870290046932062
aF-2.320719285865802
aa(lp78
F-3.707189382042101
aF-1.6323594549195364
aF-2.763021510353275
aF-4.3215336351402005
aa(lp79
F-3.0221790634331134
aF-1.8459760489042387
aF-4.384951558037611
aF-2.0220249005378164
aa(lp80
F-2.5380830440103432
aF-0.9561703146392606
aF-1.3666958014332442
aF-0.9166779532652835
aa(lp81
F-2.3646668609524375
aF-0.31368494405113284
aF-2.219501970937184
aF0.2246115219450641
aa(lp82
F-0.6662844418227001
aF0.28902684839813597
aF-1.6099102599409716
aF-0.010760630170190294
aa(lp83
F-0.059682873940386516
aF0.523209419619541
aF-0.10199242878789684
aF0.06905521917229775
aa(lp84
F0.24645214809811608
aF0.42947255014957864
aF0.2634397780206687
aF0.6439240617376084
aa(lp85
F2.1878235946734748
aF0.9155894606782042
aF1.0342778025484103
aF4.195210067983753
aa(lp86
F0.0
aF5.33517399955627
aF1.7870769904638573
aF0.17660165742440523
aa(lp87
F0.11130960791875358
aF-0.09746566588403954
aF3.2352199115905096
aF0.0
aa(lp88
F-3.674270264018137
aF5.678194965979904
aF0.0
aF0.0967792377285491
aa(lp89
F-5.63216277762511
aF0.47616571651593137
aF-2.367404227130244
aF-1.8598012541053779
aa(lp90
F-3.3251173230313205
aF-0.3309575738043933
aF-0.809867640336712
aF-1.6035559012968148
aa(lp91
F-4.395382737930698
aF-0.09034029618775755
aF-2.1251693219830434
aF-1.8962835928219044
aa(lp92
F-2.18101683241862
aF0.0010089199249142798
aF-1.2177133406450258
aF-0.7223524633476135
aa(lp93
F-1.0002522101880187
aF0.13469681127611452
aF-1.3083358040627326
aF-0.5827269960490238
aa(lp94
F0.018446449956035865
aF0.6474906846981356
aF-0.7808656155577581
aF-0.25147877613816316
aa(lp95
F-0.01512839321085878
aF0.6934523885127005
aF0.0462902324783531
aF0.2502007236871856
aa(lp96
F0.18835945870671422
aF0.8329435612615055
aF0.46992654307170856
aF0.3459811160440955
aa(lp97
F0.6510130836206672
aF0.687191273606785
aF0.5550258177142599
aF5.2374122439376105
aa(lp98
F2.5589846419631184
aF1.546786951298818
aF1.8036202311771317
aF5.604298206909176
aa(lp99
F2.2350386071218713
aF2.609765355583734
aF1.7801991801631691
aF5.040687140337287
aa(lp100
F-0.8622707194267872
aF4.908897252701892
aF3.0521115165797683
aF-0.33565908118658627
aa(lp101
F-1.984480447537403
aF1.8733891631559456
aF-1.5810615020779897
aF-0.06899935239185785
aa(lp102
F0.01085397806752006
aF1.0260436455885211
aF-0.041309707432591214
aF-0.4702040519916807
aa(lp103
F-1.0115306749016957
aF-3.301177413732006
aF-0.18447744683364578
aF0.17561854001933588
aa(lp104
F-0.39931982597950005
aF-0.7142871114228757
aF-0.3661574831371622
aF0.06856924249273616
aa(lp105
F-0.41608458806533644
aF0.718810736261575
aF-0.8151456977152252
aF-0.9660334198750621
aa(lp106
F0.0032532197143055174
aF0.7560689964375499
aF0.08917260685290648
aF0.02075927788521928
aa(lp107
F0.23543703852502054
aF0.30369007951457627
aF0.2221198729906937
aF0.794778396693842
aa(lp108
F0.265539351559954
aF1.028819452618784
aF0.18837935371008194
aF0.42822034962804206
aa(lp109
F1.3979035278161083
aF1.030107010168886
aF1.6514134158701037
aF1.308930769497951
aa(lp110
F3.7406108886168457
aF2.146631983074273
aF2.1162770037665073
aF8.774201345053479
aa(lp111
F0.0
aF0.0
aF0.0
aF0.0
aa(lp112
F2.9027280892534764
aF2.569786345471849
aF7.566591971912545
aF2.5149248067054373
aa(lp113
F0.7989336510909462
aF0.9150555194761889
aF4.4735482952865375
aF0.8721236443288626
aa(lp114
F0.9171129250072968
aF0.3828709510960204
aF2.6145291784377753
aF0.3072489899011945
aa(lp115
F-0.1711856491827541
aF1.2320938754548336
aF0.22872391797096037
aF0.21359102114051848
aa(lp116
F-0.7817416013424955
aF1.0772730091404061
aF0.0697728813240744
aF0.1250014093670599
aa(lp117
F-0.05451243083297525
aF1.342568565195354
aF0.3702704001683799
aF0.05913577608000756
aa(lp118
F0.16580619833940843
aF1.1430383398249844
aF0.1295477836560968
aF0.36838641120745
aa(lp119
F0.2973880966899639
aF1.0051776268521246
aF0.4474349931310545
aF0.24776564155799002
aa(lp120
F0.25587039075223367
aF1.116487864694613
aF0.5375190719675098
aF0.5334239483034072
aa(lp121
F0.7415672522697537
aF1.2522924645430324
aF2.6790423380553006
aF0.5695039588491492
aa(lp122
F2.998917002190097
aF2.9583811859468647
aF1.3542687817654873
aF5.152132973841114
aa(lp123
F8.882792226743991
aF5.03647407254067
aF4.308400546465926
aF4.758487249438912
aa(lp124
F5.4531251667327005
aF3.469048900697662
aF4.105900767865131
aF2.887711798335378
aa(lp125
F2.4998589018576522
aF2.767136695009608
aF4.366944473276843
aF2.1313995707052555
aa(lp126
F1.2775591875805226
aF1.2492840779192385
aF2.9398825520362633
aF0.9790501851236425
aa(lp127
F0.8530235614054331
aF1.0361596850774335
aF2.42005721861198
aF0.6274047346358703
aa(lp128
F0.7175295499208291
aF0.8662587560860566
aF0.1682993820687019
aF1.64195511163368
aa(lp129
F0.2575376161110277
aF0.8255287003645654
aF1.879286638522163
aF0.6456192983861988
aa(lp130
F0.24251726086916572
aF0.6059465638893571
aF1.6561432376111918
aF0.6395322560058075
aa(lp131
F0.5106735396743154
aF0.3608973848580556
aF1.4867027866772906
aF0.5355871530210324
aa(lp132
F0.48364086003157164
aF0.2687432675147209
aF1.297660621825784
aF0.4316733803982736
aa(lp133
F1.9511620902496851
aF0.9162766599148092
aF2.1357969407723525
aF4.177447540982639
aa(lp134
F3.347043185972506
aF3.287982415227534
aF2.827574199901678
aF4.979291936077367
aa(lp135
F6.225874343707408
aF5.147401225346949
aF4.218764948625639
aF4.371328533562197
aa(lp136
F4.14763015728833
aF4.319725970849809
aF5.184596594410197
aF3.8297864419451986
aa(lp137
F3.559131233392798
aF3.349731681874974
aF4.516982235742025
aF2.9159136584555783
aa(lp138
F2.708324979397647
aF2.850841182802391
aF3.91863457331151
aF2.599544362212875
aa(lp139
F2.2527688342942334
aF2.3507004132316816
aF3.460363903220189
aF1.5491199909736144
aa(lp140
F1.728004774198909
aF1.9511883031437307
aF2.952322764449436
aF1.3170465707911807
aa(lp141
F1.4117283565703806
aF1.669329151704635
aF2.449199718981193
aF1.1847617632481995
aa(lp142
F1.0018282165502859
aF1.2394115912859422
aF2.0343425282067935
aF0.7814628974358877
aa(lp143
F0.8508192049197458
aF1.0388648625489727
aF1.7500929240902872
aF0.749880067924767
aa(lp144
F0.6134178698338059
aF0.6253062300108269
aF1.45460828826706
aF0.6314210796715533
aa.