(lp0
(lp1
F0.015452113435203429
aF0.4721382886755814
aF0.01545461873681431
aF0.015964678396015765
aa(lp2
F0.3177665999935717
aF0.719779104798681
aF0.015536153776339778
aF0.013622621673976721
aa(lp3
F0.7001346225523135
aF0.8959504137848646
aF0.3208536638356414
aF0.9554337875003772
aa(lp4
F1.0293797168559526
aF0.9889126277416973
aF0.938307508782159
aF1.1564656796401644
aa(lp5
F1.155669447908183
aF1.1879244199248389
aF1.062261893686372
aF1.2351445915273576
aa(lp6
F1.2527401906239815
aF1.2916469831001545
aF1.2024508155268743
aF1.376962642437433
aa(lp7
F1.3519508147370891
aF1.5224514664962996
aF1.2526222175337098
aF1.5370905609999188
aa(lp8
F1.5759495578412575
aF1.673377969174847
aF1.3851772558457591
aF1.7021115527627448
aa(lp9
F1.6644818136386068
aF1.8857084603270176
aF1.5054611605835668
aF1.5997406453109118
aa(lp10
F1.8763015960964062
aF2.1324706016476194
aF1.604747323308163
aF1.767876158026685
aa(lp11
F1.7910877808893249
aF1.84349411360558
aF1.8752887017494686
aF1.6882484580732355
aa(lp12
F1.7139858659791307
aF1.8654246855816312
aF1.7594790388622998
aF1.691862735669821
aa(lp13
F0.014570616414912098
aF0.6236007623028484
aF0.4721396799790925
aF0.49410888761366833
aa(lp14
F0.31777435897178835
aF0.6132008622301041
aF0.5597189091101362
aF0.9479054355369466
aa(lp15
F0.765118486203576
aF0.7751781548850302
aF0.8703593832959192
aF0.9589908103522188
aa(lp16
F0.9452287674656696
aF0.9418691519797522
aF0.8872965017023168
aF1.1424974449431549
aa(lp17
F1.200103123397492
aF1.1086839265960169
aF1.1658169307455335
aF1.254118248145209
aa(lp18
F1.1823567447141001
aF1.2470736675164007
aF1.1723002108455247
aF1.5366196578892521
aa(lp19
F1.3475734718038477
aF1.3402428129715136
aF1.286483527751456
aF1.7261713854117893
aa(lp20
F1.6023166043652144
aF1.7873405020402302
aF1.6002630671260438
aF1.8882358810406834
aa(lp21
F1.7461447378291879
aF2.099056966804984
aF1.7432033195641394
aF2.070656143096632
aa(lp22
F1.9212589664185273
aF2.4159392748470214
aF1.947898596781628
aF1.9899813028879778
aa(lp23
F1.7930728171935522
aF2.2456543510042133
aF2.102574745406987
aF1.898327794081192
aa(lp24
F1.7429156378845014
aF2.0851083967348227
aF1.9771945828238113
aF1.8645313492471955
aa(lp25
F0.7640643060419674
aF0.9739020145023402
aF0.4935039813077238
aF0.7124287685907859
aa(lp26
F0.4349818883634846
aF0.8663384787744883
aF0.7134613068352954
aF0.3031789572216798
aa(lp27
F0.9418131865508337
aF-0.0797836019622874
aF0.7490911213403011
aF0.6788981194443242
aa(lp28
F1.0731113730140374
aF-0.014782495628890557
aF0.7828688109743502
aF0.6819296617964036
aa(lp29
F1.1880962979566656
aF0.5938097804024209
aF0.5253446964739907
aF1.1201775143081387
aa(lp30
F1.2331985238069267
aF-0.4674872411816827
aF1.1279816558993856
aF1.3622075353616454
aa(lp31
F1.504782875899141
aF0.3243920124684347
aF1.316990111266929
aF1.1073898020956712
aa(lp32
F1.5200911606195555
aF0.491980244028895
aF1.3994623804921427
aF2.101112306733998
aa(lp33
F1.8593362545388237
aF1.4731476663137095
aF1.7666510836933818
aF2.410128570372487
aa(lp34
F2.353390845168553
aF2.8090663224733916
aF2.180445926030731
aF2.3263117023088413
aa(lp35
F2.0438003411326773
aF2.565516855225184
aF2.4043952504108232
aF2.098978071122194
aa(lp36
F1.9032032793142006
aF2.303292250733999
aF2.187385063623552
aF2.091556599663877
aa(lp37
F0.7440494998226785
aF1.361744772221116
aF1.082256212731043
aF0.7897471103824208
aa(lp38
F0.6349421087565192
aF1.3399874691924327
aF0.8349665896102388
aF-0.002537011293774323
aa(lp39
F0.33193012711877135
aF0.05722850623015341
aF0.9679468020430063
aF-0.7973058801279487
aa(lp40
F0.9488888973741196
aF-1.85602954356714
aF-0.5747271135498528
aF-1.0262680579592702
aa(lp41
F1.14302141156553
aF-3.085030502456907
aF-0.15676498134092343
aF-0.10608082341075727
aa(lp42
F1.174800751531574
aF-0.900552412439448
aF-0.5438506956566433
aF0.17157608153551876
aa(lp43
F1.1538491027321898
aF0.6767902241206408
aF-0.524215597519248
aF0.9807260656175574
aa(lp44
F1.543661000863073
aF-0.17697942252566162
aF0.2695222363393668
aF1.0417018167375494
aa(lp45
F2.075693917043037
aF1.2926342271008289
aF0.5586592219951446
aF2.569182276224544
aa(lp46
F2.42792201505165
aF3.103142884504103
aF1.366820526493501
aF2.567943571661209
aa(lp47
F2.2929762554408937
aF2.8893023999124097
aF2.756268312478953
aF2.3865221257680083
aa(lp48
F2.125106150481158
aF2.5551092822724497
aF2.604381420855014
aF2.416454376202508
aa(lp49
F0.9970606702951887
aF1.6444216861692131
aF1.1940810047367252
aF1.3516052402012453
aa(lp50
F1.125893954763433
aF1.520282515530942
aF1.2862542250928102
aF-0.12384086533006194
aa(lp51
F-0.221015847963075
aF-0.4703872092763119
aF1.3175248463230484
aF-2.128409286633078
aa(lp52
F-0.21118268461660974
aF-2.880040639200777
aF0.1623466624962633
aF-0.988607124723289
aa(lp53
F-1.7101157634196502
aF-2.1602972666608533
aF-1.96369945372926
aF-1.2096351046470433
aa(lp54
F-0.13400799380690992
aF0.12737099230739357
aF-3.0185145465143073
aF0.5172722153319034
aa(lp55
F0.39491381971531475
aF1.731267914231975
aF-1.211183885044558
aF-0.1913492202850212
aa(lp56
F0.76224647677798
aF1.513682240879558
aF0.47951316951424583
aF1.169370493504303
aa(lp57
F1.453306036182617
aF2.3006007810170885
aF-0.48954514524392795
aF2.7418102155071757
aa(lp58
F2.695330615894832
aF3.414102919255831
aF1.507338265194953
aF3.0001983477420993
aa(lp59
F2.566986595768649
aF3.2783699004727707
aF2.978340840694518
aF2.7571149197669333
aa(lp60
F2.432442462296678
aF2.9847071304597734
aF2.896331164639917
aF2.7163108152673283
aa(lp61
F1.2830611336274944
aF1.9387866049198152
aF1.4112560748241776
aF1.560670608904438
aa(lp62
F1.1236998417080597
aF2.064022905505502
aF1.3145787964268536
aF0.33663334476275486
aa(lp63
F1.2185797110022192
aF0.37350283687941155
aF1.5359153754764372
aF-2.7040647811464553
aa(lp64
F-2.1625715457352097
aF-2.5705032298842054
aF-0.9803512699284638
aF-2.1589225182819627
aa(lp65
F-2.8918520992118064
aF0.87550413957017
aF-2.8821512971078587
aF0.9328100387475359
aa(lp66
F-1.383213563450104
aF3.8560211960680757
aF-2.160305914501636
aF1.7429309149325678
aa(lp67
F0.6202748920078263
aF5.617464170614864
aF0.4213134449384778
aF1.606280681343971
aa(lp68
F-0.4821396027454934
aF3.7017853207745004
aF1.5445243985238957
aF2.4736360015688637
aa(lp69
F1.200342940034954
aF2.856598542804726
aF2.000744321641547
aF3.5140902016463316
aa(lp70
F3.241321919061404
aF4.012349219558153
aF2.5308499451013358
aF3.4527544227353464
aa(lp71
F2.9937460005454213
aF3.7451070173081367
aF3.6190616721129896
aF2.9987137880696593
aa(lp72
F2.7284000963360464
aF3.2982383062167457
aF3.3354635584680414
aF3.2246627275515247
aa(lp73
F1.5071150009711451
aF2.314946498963352
aF1.8192976530617333
aF2.0927808948684934
aa(lp74
F1.564206988492255
aF2.511721407137978
aF1.610798269705878
aF0.3189895121433919
aa(lp75
F0.043630996885928974
aF0.7452972882495288
aF1.5512590554358572
aF-0.6622353426405563
aa(lp76
F-2.823582327270564
aF1.239096197685641
aF-1.7423681621530163
aF0.5660073315994864
aa(lp77
F-2.185063874763746
aF3.971786431723614
aF-0.9504631956845683
aF4.303392410391688
aa(lp78
F1.2521635820619492
aF6.606408465127691
aF0.8846421974374498
aF6.308975833208033
aa(lp79
F2.3237540820130698
aF8.695997359412358
aF3.9840652315990503
aF3.8081114841018877
aa(lp80
F1.6043236517687354
aF6.646550153155366
aF4.396827268077217
aF3.099057341388309
aa(lp81
F2.625867215609253
aF5.229260908028224
aF3.7849015855093313
aF4.218424112441769
aa(lp82
F3.7438281050601723
aF4.546848589386895
aF3.622701288685262
aF3.802969557746666
aa(lp83
F3.3124587783298773
aF4.2139869138881165
aF3.683582970821705
aF3.484102583208466
aa(lp84
F3.2410387182452745
aF3.7340952290427305
aF3.6266559587632106
aF3.4435082766474054
aa(lp85
F2.165720107222911
aF2.59131683598762
aF2.219150393530091
aF2.110132672338194
aa(lp86
F1.8159255127609686
aF2.8304075591703115
aF2.250169990368567
aF1.2741267071882538
aa(lp87
F-0.03911801090375
aF2.0747885107817226
aF2.4058549255956923
aF0.8948346425111126
aa(lp88
F-0.8783528238068692
aF3.111258131332051
aF1.1171522860544714
aF2.360150091287014
aa(lp89
F0.8918954690022523
aF5.950978490794428
aF0.789221277784241
aF6.188965292770003
aa(lp90
F4.300149267950488
aF5.862261626737514
aF3.091534723359538
aF9.30774168424776
aa(lp91
F0.0
aF0.0
aF0.0
aF0.0
aa(lp92
F3.7758758943225246
aF6.681200215277737
aF9.159627794867198
aF5.278271630478789
aa(lp93
F3.621442432751712
aF5.515613250617045
aF6.809792290679296
aF5.093095936113239
aa(lp94
F4.332038213632036
aF5.113600747262548
aF5.029206548943335
aF4.492679478571413
aa(lp95
F3.700488879317292
aF4.589635768658347
aF4.636993434352211
aF3.935027563790081
aa(lp96
F3.3930566960086854
aF4.238360341957632
aF4.152559423971801
aF3.809705750909333
aa(lp97
F2.2129571182511514
aF2.886643405128923
aF2.541394249386968
aF2.8823125188386918
aa(lp98
F2.560092527046063
aF3.2137545357925834
aF2.041688755098465
aF2.1585663912673847
aa(lp99
F0.750593719258134
aF3.5211208112112895
aF2.897681481019485
aF3.0323566250980587
aa(lp100
F1.084344943086316
aF3.609944159484005
aF2.61991461207792
aF4.578546380648006
aa(lp101
F3.345590942354965
aF3.7928915181914697
aF3.099386571485896
aF5.328214288438761
aa(lp102
F5.35629070662458
aF6.352796453527437
aF4.45653053108305
aF7.503420396460864
aa(lp103
F9.765044588807267
aF6.554924078661363
aF5.70381076137757
aF7.221621644640164
aa(lp104
F7.271509674783642
aF6.063309464595603
aF7.450697031806546
aF6.042354035264005
aa(lp105
F5.354429778468158
aF5.4634808823624725
aF6.606451778041917
aF5.576953944295618
aa(lp106
F4.853738503184068
aF4.87365680221476
aF5.716208113566111
aF4.94755265062918
aa(lp107
F4.538168773010208
aF4.4322454333985055
aF5.14761442620834
aF4.305858422738634
aa(lp108
F3.8739400492872478
aF3.9923422972501292
aF4.672020465586546
aF4.297804561570583
aa(lp109
F2.299085595843668
aF3.3445518281490965
aF2.509687939525059
aF2.3277261036324184
aa(lp110
F2.511247745871433
aF3.53730867432436
aF2.5678948976116605
aF3.5404668024019585
aa(lp111
F2.282886732741051
aF3.828479928283012
aF2.99589894289247
aF3.6243953795555655
aa(lp112
F2.8872936336250596
aF4.492658276511752
aF3.2321399921863367
aF5.430852663578932
aa(lp113
F4.561553142538702
aF5.248622578771624
aF5.310712397129683
aF6.022605089280512
aa(lp114
F5.696979491016189
aF5.294491107186392
aF5.812673451157682
aF6.57751340988633
aa(lp115
F7.333583863448013
aF5.868536810710909
aF5.9406170485982335
aF6.060407221898636
aa(lp116
F6.622557092308676
aF5.5522803139808055
aF6.359095430782201
aF5.455381680178872
aa(lp117
F5.87470936108067
aF5.1567019656229345
aF5.902120489410654
aF4.925001733011385
aa(lp118
F5.236400224810062
aF4.705148458227892
aF5.172619728933183
aF4.44196034697148
aa(lp119
F4.649355045564972
aF4.081468887563745
aF4.899465069330624
aF4.174426832125017
aa(lp120
F4.356071690477174
aF4.105253486839598
aF4.44076229697285
aF4.119155709762986
aa(lp121
F2.604679035976444
aF3.035860981059482
aF2.8841303785490116
aF3.6998695107270176
aa(lp122
F2.5706879080699596
aF3.454558927267268
aF3.359522390468634
aF4.069919219672789
aa(lp123
F4.0847631397667685
aF3.799505674959061
aF3.447403645865875
aF4.637946084348118
aa(lp124
F4.30987804069241
aF4.328314287161022
aF4.2831208260604745
aF5.248385082657253
aa(lp125
F5.306220129378713
aF4.789057806913779
aF4.945848770642011
aF4.97265931912938
aa(lp126
F5.898555932129904
aF4.813933520810096
aF5.005402416141032
aF5.676598484184372
aa(lp127
F6.599079649275747
aF5.317374481561117
aF5.098658625768431
aF5.203256760964223
aa(lp128
F5.8090436805268375
aF4.9472146603091645
aF5.531871967949251
aF5.243701918972327
aa(lp129
F5.210666180360837
aF4.785171202560555
aF5.324911579717762
aF4.998492901559474
aa(lp130
F5.000258271948
aF4.270402797083968
aF5.164668943418229
aF4.33897211655919
aa(lp131
F4.05145896186335
aF3.928796882538057
aF4.51660175621414
aF3.9119313496577033
aa(lp132
F4.007596663650899
aF3.6786973813117703
aF4.103996293103935
aF3.9364876701255977
aa(lp133
F3.3146965764054874
aF1.5688379090150386
aF3.0055099164986516
aF3.4264414879278746
aa(lp134
F3.694602362744176
aF3.381393384915833
aF2.9087037749612006
aF3.805297452676456
aa(lp135
F3.9012903884589147
aF3.5643405782613686
aF3.4861581045727643
aF4.2276990284490985
aa(lp136
F4.669343402821254
aF4.747019309254249
aF4.425290309364749
aF4.8003001368923455
aa(lp137
F5.04245002895266
aF4.762225249493803
aF4.553731551098326
aF5.1013563233692745
aa(lp138
F5.250358407461672
aF5.17658330947647
aF4.739754489573852
aF5.18120624272181
aa(lp139
F5.643944266274657
aF5.120288325454093
aF5.050810237004347
aF5.253738185917411
aa(lp140
F5.336578283459139
aF5.276994392175075
aF5.2498688479195845
aF4.814888031686585
aa(lp141
F5.094939710367214
aF4.706394804941707
aF5.079018996436522
aF4.3289097962012475
aa(lp142
F4.704042653250318
aF4.69384269064893
aF4.730959084159508
aF4.211141363655867
aa(lp143
F4.211087354484524
aF4.200265187709365
aF4.245630771254161
aF3.6971048390920607
aa(lp144
F3.928110606292814
aF3.7002597573215597
aF3.9728625271092635
aF3.7013930394500782
aa.