(lp0
(lp1
F0.009048968937646193
aF0.10999605552553789
aF0.0
aF0.0
aa(lp2
F-0.0009387595658359538
aF-0.0480707629929398
aF0.10224208848438099
aF-0.008133888861044465
aa(lp3
F-0.2861974614424476
aF-0.16562895617322995
aF0.04217396520603377
aF-0.16797540267176467
aa(lp4
F-0.4739068176302197
aF-1.0646015779445253
aF-0.03980898197974901
aF-0.5004306799155914
aa(lp5
F-0.47772463620195876
aF-1.0242815095895013
aF-0.2651975140047317
aF-0.6717036490042881
aa(lp6
F-0.7476536113066531
aF-2.5271171994447723
aF-0.45605181731590416
aF-0.9280016402429799
aa(lp7
F-0.9324890147072261
aF-1.4852753364011348
aF-0.7485154599973742
aF-0.5619483492221059
aa(lp8
F-0.875263406717141
aF-0.8554211190734989
aF-0.6498456247505038
aF-0.3776746647463238
aa(lp9
F-0.6277307188987926
aF-0.7688658332995726
aF-0.3941262057898411
aF-0.5824955104291384
aa(lp10
F-0.49717375448028556
aF-0.3208805359502419
aF-0.170000543886726
aF0.053508474827490125
aa(lp11
F-0.09378272091464523
aF-0.11590083499447279
aF-0.25104000083890393
aF0.22565545101039827
aa(lp12
F-0.03627303902773378
aF0.32504237669004893
aF-0.07875480006491081
aF-0.002069002444303157
aa(lp13
F0.1130407439710631
aF1.0032774111133853
aF0.21230070668887374
aF0.02490737019065232
aa(lp14
F-0.019198065719386335
aF-0.2232479051749615
aF0.45403295084396733
aF-0.36864032633695143
aa(lp15
F-0.4027940565432001
aF-0.9701050776283177
aF0.35897416921022723
aF-0.5969642226532434
aa(lp16
F-0.19756374142106434
aF-1.6615736038120565
aF-0.9678836629542644
aF-0.7631919861885489
aa(lp17
F-0.8613274266741465
aF-2.023218722221748
aF-0.7837232747798197
aF-1.4060101618940863
aa(lp18
F-0.575875380429577
aF-3.241804957026582
aF-1.4783465013898014
aF-2.452188458802167
aa(lp19
F-1.0516215468496475
aF-3.128564625211737
aF-1.8687285661516162
aF-1.7292090517528966
aa(lp20
F-0.6644842007505845
aF-2.0898395397564484
aF-1.0871713507354472
aF-0.7284743298127344
aa(lp21
F-0.9103435179179413
aF-1.477132096606663
aF-0.8936190158502217
aF-0.22421656923170247
aa(lp22
F-0.04344669355562708
aF-0.7961172396786094
aF-0.7522224240300301
aF-0.5315943046434464
aa(lp23
F-0.07729759062566562
aF-0.11021947456992763
aF-0.32736820623638113
aF0.19392247866747053
aa(lp24
F-0.054912403160611314
aF0.3858594063585611
aF-0.14023934538735164
aF0.050132636781971884
aa(lp25
F-0.0031393284352254757
aF1.6579214197830063
aF0.3319695305718484
aF-0.030476506239013088
aa(lp26
F-0.01987296713084756
aF-1.3124675362074232
aF1.0024486330438118
aF-0.9163565644661871
aa(lp27
F-0.3481532275267984
aF-1.47103934356889
aF-1.5846886731126317
aF-1.5526281202302858
aa(lp28
F-0.7907173801612315
aF-2.8163037788002088
aF-1.4817157384597923
aF-2.268617852871574
aa(lp29
F-1.0815755309865764
aF-3.9089573108009867
aF-1.8469218877479576
aF-2.4567953794781556
aa(lp30
F-1.8513507119600687
aF-3.891108897824703
aF-3.1306723419740248
aF-4.294801844107109
aa(lp31
F-1.0459360384874206
aF-4.587385928114897
aF-4.023897781205102
aF-2.6112574909901936
aa(lp32
F-1.1614070910717398
aF-3.4649973367881666
aF-2.1046462227557488
aF-1.7274401995335578
aa(lp33
F-0.43778757989707384
aF-1.7099853559050753
aF-1.690413696833201
aF-0.7454735680865868
aa(lp34
F-0.7120341228007548
aF-0.5580028180440036
aF-1.2860396927602893
aF-0.19126033664120856
aa(lp35
F-0.33423568926064723
aF0.2029739089686498
aF-0.62160055407101
aF-0.01660993204907455
aa(lp36
F0.037176715360601145
aF0.4608856801708853
aF-0.0033087972805303702
aF0.005534955352643643
aa(lp37
F-0.2523833100555717
aF2.7947334164278765
aF0.07868785895203298
aF-0.4065688982709236
aa(lp38
F-0.727620302075995
aF-0.1558601614279143
aF0.6703497005133211
aF-1.863474842805454
aa(lp39
F-1.1432289372865152
aF-1.142776450133659
aF-0.132303971714657
aF-2.4284451885955334
aa(lp40
F-2.4188094806757237
aF-2.565647817268297
aF-1.951335844225827
aF-4.235527281207652
aa(lp41
F-2.3048215084654453
aF-4.956129316556491
aF-4.15761109066354
aF-5.129732415271539
aa(lp42
F-4.638403020931539
aF-5.939182564794048
aF-4.356817939444599
aF-4.94812413880264
aa(lp43
F-3.103276867017968
aF-6.427838788672266
aF-4.997320650495261
aF-4.603835577089972
aa(lp44
F-1.9221572491740464
aF-3.3971306739415743
aF-3.048872704498147
aF-1.7633016862085742
aa(lp45
F-2.2418630127207306
aF-1.4465493081065888
aF-5.120791449228268
aF-1.8014875164014326
aa(lp46
F-0.5523848358808768
aF-1.1750521366220235
aF-2.2637479973952996
aF-0.3656186644672768
aa(lp47
F-0.034679008208966744
aF-0.16437065155902714
aF-0.4133201266410089
aF0.36265785338250184
aa(lp48
F0.07582329993995891
aF0.5318014348072324
aF0.019030214898180665
aF0.11704568363387738
aa(lp49
F0.0
aF0.9839772997160068
aF3.2324214408624217
aF0.4996483533385612
aa(lp50
F-0.47428969605625215
aF-0.5408012352297208
aF1.4448353051637868
aF-2.2010678997765827
aa(lp51
F-1.039464708263569
aF-1.1152623402675919
aF0.03023521236695735
aF-3.6806728541601483
aa(lp52
F-1.9140388035872913
aF-2.3974035484161473
aF-1.4432484702909976
aF-1.7053699023229916
aa(lp53
F-4.562220420564408
aF-4.324374043677184
aF-3.775846105319563
aF-4.152356657146394
aa(lp54
F-4.317640787802794
aF-4.107454183199011
aF-5.0501728285503
aF-4.354589216329971
aa(lp55
F-4.506687375423068
aF-4.971761350093793
aF-4.663731991818322
aF-4.353314458211895
aa(lp56
F-4.66832695481984
aF-3.6548832297770595
aF-6.596940387177717
aF-4.862670431668141
aa(lp57
F-1.8383339148238729
aF-1.5504343530139546
aF-4.352550107235329
aF-0.5080527138781095
aa(lp58
F-0.7705340141231769
aF-0.9867149181139374
aF-1.7330590147575604
aF-0.033006585677763184
aa(lp59
F-0.09838717123863445
aF-0.03679938247390888
aF-0.39306854969745575
aF0.36723403384401665
aa(lp60
F0.13207663606163317
aF0.6710729138908195
aF0.017756038058184143
aF0.22641864122974592
aa(lp61
F0.20783980020985326
aF4.935189499333582
aF1.7277999751328421
aF0.15801117822325275
aa(lp62
F-0.20133664355750192
aF1.6737349857547492
aF0.0
aF-1.2319213540098053
aa(lp63
F-2.2056340744046588
aF-1.0593917744245474
aF-1.5794051775420386
aF-2.265687159832516
aa(lp64
F-3.6519041780863257
aF-2.400668699668075
aF-3.057468489816185
aF-2.7023135391485114
aa(lp65
F-3.7310088818015554
aF-1.2655201739074173
aF-1.761389804461274
aF-4.867630644800865
aa(lp66
F-3.9791827139715323
aF-3.5457952768528584
aF-4.915501210997522
aF-4.565388117975514
aa(lp67
F-4.3933087488048885
aF-5.68735936742581
aF-6.018803210403943
aF-3.910097679722929
aa(lp68
F-4.079150863266487
aF-3.7533394963603235
aF-3.0855833204406693
aF-2.613898683726735
aa(lp69
F-1.6020510413011773
aF-1.0574888459124443
aF-4.219436947360745
aF-0.2811035816927468
aa(lp70
F-0.1758819587106969
aF0.1816216410511652
aF-1.5956705363730999
aF-0.10397695995314257
aa(lp71
F-0.08586701069632457
aF0.007295532279436315
aF-0.12638532920309864
aF0.3635972285213411
aa(lp72
F0.26785792386091023
aF0.7758274716941892
aF0.054148166720141694
aF0.2903381338473938
aa(lp73
F1.633057684633883
aF6.335661882703355
aF0.0
aF-0.21759410350276479
aa(lp74
F-0.49871154066650447
aF2.3966135620807223
aF0.0
aF0.543451004083961
aa(lp75
F-0.016800646170961997
aF0.19077380638258784
aF-0.5044474715541568
aF-0.5234280820218876
aa(lp76
F-2.1265142843502916
aF-1.2575455760200773
aF-0.8057071806270683
aF-2.9359103741654105
aa(lp77
F-1.068156235806812
aF-0.5649850068097366
aF-2.9546788664526473
aF-4.755711114850168
aa(lp78
F-3.875669378459744
aF-2.1719312697630775
aF-2.776791262016828
aF-2.901777041111668
aa(lp79
F-4.72954901122988
aF-2.118808445990567
aF-3.233500381716212
aF-2.482110606543502
aa(lp80
F-3.2459551260311263
aF-3.276726498418991
aF-1.2940738506466531
aF-2.04011016744409
aa(lp81
F-2.0149006491890953
aF-0.6223051202171275
aF-2.7096727192971404
aF-2.3298392500003398
aa(lp82
F0.0040350644506070565
aF0.07191150927259246
aF-1.3165540766226778
aF0.3695651144646107
aa(lp83
F0.0716532233274929
aF0.7782887187119817
aF-0.4120483827631972
aF0.12457127749961922
aa(lp84
F0.1794273446304368
aF0.9040035379817466
aF0.3622155920260587
aF0.21939641257322345
aa(lp85
F0.3760660205038243
aF7.031433040900236
aF0.0
aF1.5220496385567142
aa(lp86
F0.0
aF5.429793369190047
aF0.0
aF0.0
aa(lp87
F-0.97050465017954
aF1.4933002088072316
aF0.0
aF-1.49223010053819
aa(lp88
F-2.2641531520989173
aF-0.9657608767233257
aF0.4748940979309886
aF-0.6845971717909279
aa(lp89
F-3.32325569557729
aF0.7553568532484854
aF-2.598354029295294
aF0.0
aa(lp90
F-3.7391068156980776
aF0.2938894592246939
aF-2.7101521757439
aF-2.297532165661728
aa(lp91
F-2.5208101955856446
aF-0.8938810175222061
aF-1.787872965241097
aF-0.1235100765007987
aa(lp92
F-2.1630857607573537
aF0.3009248091672315
aF-1.0489882345581893
aF-0.6285734919059576
aa(lp93
F-0.5722114758446636
aF-0.038666491095531996
aF-0.6244822150112839
aF0.4704201853283758
aa(lp94
F-0.1374237450475406
aF0.9858817822899202
aF-1.0412725992049157
aF0.05554131136450015
aa(lp95
F0.2851761438621597
aF1.1711446800191432
aF0.29442881351333194
aF0.18424107444697765
aa(lp96
F0.30285687602771516
aF0.31427501382111594
aF1.0660591792352088
aF0.3754875388526188
aa(lp97
F0.5937321785357744
aF8.289907531161715
aF0.8853150366314202
aF0.861896492459847
aa(lp98
F1.2367225336886682
aF2.9161017448008026
aF5.1314351438179395
aF3.979987137586115
aa(lp99
F1.4828927613246212
aF0.03914031712598709
aF4.220005344328976
aF-0.2872482907273668
aa(lp100
F-1.0420319148370607
aF0.2629786808929848
aF1.7558636915257522
aF-0.5912857017130533
aa(lp101
F-0.8886179833370741
aF0.44883500084767447
aF0.7856381319561164
aF0.2802007346681502
aa(lp102
F-2.3682404393131726
aF1.0645991787741451
aF-0.7818446354049137
aF-1.5374508963747804
aa(lp103
F-1.2145552393915122
aF-0.7704404159814158
aF-0.6850312706378334
aF0.23667395919301074
aa(lp104
F-2.766224491687395
aF1.1782279705782988
aF-1.385719430454891
aF0.00776504034369719
aa(lp105
F-0.16376098728467492
aF1.9244672779729473
aF0.24827653515491033
aF0.35894243947421867
aa(lp106
F0.34283430648968516
aF0.8370709927785513
aF1.7594712662683214
aF0.35844283363548846
aa(lp107
F0.3991249166409395
aF0.7775830886559395
aF1.4989561203628674
aF0.33055956863238406
aa(lp108
F0.096459599154918
aF0.46433252326676405
aF1.1403385905213244
aF0.2960729937816476
aa(lp109
F4.419888499863281
aF8.867264523590096
aF6.490794293542221
aF6.598498324887656
aa(lp110
F1.862925720726582
aF7.7905120615633505
aF5.79763585510552
aF4.424832637774606
aa(lp111
F2.9065871382651522
aF6.426359531234382
aF5.599061502517705
aF2.4379758933483986
aa(lp112
F-0.1918407050153893
aF0.3049858160905894
aF5.006890717584629
aF1.0735418273239812
aa(lp113
F0.7919931115322709
aF4.692848489753078
aF2.222306280262734
aF0.7619144269675463
aa(lp114
F-1.4766625905570945
aF1.117031325382238
aF3.7936789032245875
aF0.43507682565568917
aa(lp115
F0.04755116408200233
aF0.19254469731735768
aF2.0678345779623912
aF0.10152901048840535
aa(lp116
F-0.2803737164176219
aF0.06766284455218602
aF1.9224631770827023
aF0.33720999079947533
aa(lp117
F0.9180876311279619
aF2.6255008314761556
aF0.47863701588193086
aF0.9713187496489685
aa(lp118
F0.48933812656016895
aF0.7577568237545498
aF2.167140353729321
aF0.5787996340847856
aa(lp119
F0.34272512371206104
aF1.59931995901919
aF0.6036022197882791
aF0.256789789559157
aa(lp120
F0.26324800604921683
aF0.24102514527226393
aF1.205742859287889
aF0.2547076709014376
aa(lp121
F7.541910274313032
aF9.937637456152016
aF6.972186150521331
aF6.647069872252109
aa(lp122
F3.921721530437988
aF8.054051656482411
aF8.368395289804825
aF5.052642475198433
aa(lp123
F5.196075495299819
aF6.501084159827424
aF7.592418891576168
aF4.5922981192894685
aa(lp124
F4.633520304980208
aF4.391748441094235
aF6.8270621054151075
aF2.925570600892133
aa(lp125
F3.662088893987995
aF3.922795478599993
aF5.725680486949435
aF2.9849297898306046
aa(lp126
F1.6559514869785597
aF1.70165880850795
aF4.944550396673372
aF1.9669238407111733
aa(lp127
F1.5278526413575662
aF2.222050199291911
aF4.0925507865508255
aF1.3802653283143795
aa(lp128
F0.816876356260691
aF2.063330029545217
aF3.748823703159513
aF1.1844284451097147
aa(lp129
F1.4261612715159708
aF1.8280546904360973
aF3.0643015416967763
aF1.3353846153365247
aa(lp130
F0.8251474115682578
aF1.0318364422624713
aF2.445922532849335
aF0.8840054166575757
aa(lp131
F0.1715850245744462
aF1.0088808638471365
aF1.9841609339604476
aF0.3356986605160892
aa(lp132
F0.0451923614727069
aF0.8756658381139594
aF0.2963897199430192
aF0.18078366454261652
aa(lp133
F0.0
aF0.0
aF0.0
aF0.0
aa(lp134
F7.770690563053589
aF8.724023119928837
aF9.977415954335651
aF7.170745416461084
aa(lp135
F6.948407662426134
aF7.054849367360901
aF8.70769966825542
aF6.208198766233545
aa(lp136
F5.215173562639163
aF5.642371705018566
aF7.553450305957588
aF5.072226510754753
aa(lp137
F4.9316963398336
aF4.988950957105408
aF6.5466238448128005
aF4.2785809246010365
aa(lp138
F3.724814032660051
aF3.9107822169977857
aF5.503250803934453
aF3.4171818661152633
aa(lp139
F3.283579474166559
aF2.69877913916021
aF4.722037681764202
aF2.9663793344638623
aa(lp140
F2.757046531422947
aF2.171006580499217
aF3.8108113400946286
aF2.0036681440723156
aa(lp141
F1.6941006801710459
aF1.9979027614142761
aF3.3098945922500054
aF1.2695438505419854
aa(lp142
F1.1384587932375665
aF1.0813439665504596
aF2.8121705044868013
aF1.0825061985544113
aa(lp143
F0.8350339631834754
aF1.008931268162289
aF2.3087675479270464
aF0.8083088417975145
aa(lp144
F0.3256146329875351
aF0.12262938650260846
aF1.4265424772499151
aF0.2202314379516161
aa.