(lp0
(lp1
F-0.006609648414914937
aF-0.006893354171419598
aF-0.004553699308092954
aF-0.003759259684332156
aa(lp2
F-0.012590970068692602
aF-0.026231364095732325
aF-0.04580912256083824
aF-0.007399579568802394
aa(lp3
F-0.021540909603936134
aF-0.015364358403620748
aF-0.034686756195759935
aF-0.07078552016893536
aa(lp4
F-0.09192298442059377
aF-0.059307842051615704
aF-0.14886500890984122
aF-0.04245412420523366
aa(lp5
F-0.15838283504737316
aF-0.06948727771631907
aF-0.09926607628987266
aF0.08643900856609578
aa(lp6
F-0.1376599148588199
aF-0.06838801176921452
aF0.0038696479556743005
aF0.16046793728307762
aa(lp7
F0.10627386990583679
aF-0.1535340226357618
aF-0.10473216371090767
aF0.1960656827958097
aa(lp8
F0.1525887683561113
aF-0.05260489135516562
aF0.012893422909766472
aF0.2774228124442086
aa(lp9
F0.11664355712652327
aF0.06313590769468133
aF0.06627263972394055
aF0.317851885915189
aa(lp10
F0.30357964017575195
aF0.04566099957880845
aF0.09691426348323487
aF0.4025102841275795
aa(lp11
F0.35635027532568236
aF0.3741107298958407
aF0.3080465482100309
aF0.48837325622429295
aa(lp12
F0.43803670812661877
aF0.5879359919243804
aF0.3252161623561455
aF0.3072228809812807
aa(lp13
F-0.022981390241036383
aF-0.015358123967136823
aF-0.011163520685035165
aF-0.005771716263976538
aa(lp14
F-0.005809035928948547
aF-0.07423558974334113
aF-0.019075184791359764
aF-0.02956919511269004
aa(lp15
F-0.027225950698900554
aF-0.0702087764862665
aF-0.0074195050393538724
aF-0.19705268116480568
aa(lp16
F-0.062451296020850436
aF-0.6570097113013831
aF-0.11536135464698077
aF-0.136943136872242
aa(lp17
F-0.2185552871441359
aF-0.6327490832237821
aF-0.22140601425543252
aF-0.06087076490921497
aa(lp18
F0.09900591945834543
aF-0.7075792026742503
aF-0.15458077909167786
aF-0.3161874678515002
aa(lp19
F-0.46569029788018784
aF-0.458825172039271
aF-0.06434168816940423
aF-0.345530406482919
aa(lp20
F-0.4601811851204875
aF-0.5592499721023432
aF-0.13236698049989853
aF0.0002968644750293292
aa(lp21
F0.032283727583721694
aF-0.29903883756461186
aF-0.014632950239903054
aF0.31967927575226224
aa(lp22
F0.19880681775471892
aF0.015367349669773416
aF-0.04416293764879227
aF0.36034389482350054
aa(lp23
F0.30003760744039376
aF0.23912407234902017
aF0.22240785181081882
aF0.2547750678373935
aa(lp24
F0.46833697903218985
aF0.7305819309525342
aF0.36655738861438697
aF0.4125117392147008
aa(lp25
F-0.009786956026231176
aF-0.01753261340184363
aF-0.012444973995628668
aF-0.04400215765148335
aa(lp26
F-0.07788102417298759
aF-0.19128808712228731
aF-0.006652294161219731
aF-0.14875688834647532
aa(lp27
F-0.11324527262938754
aF-1.9905878695778108
aF-0.24378447479735113
aF-0.33885018974071035
aa(lp28
F-0.4901021510397346
aF-3.354314992843108
aF-0.07279893378883236
aF-0.4568224046830187
aa(lp29
F-1.6924035240081532
aF-2.099593793712841
aF-0.5683370810127994
aF-2.250976739118586
aa(lp30
F-1.791896408076322
aF-3.6014532647182635
aF-0.8506134867911792
aF-1.2258285590925362
aa(lp31
F-0.8877576081867491
aF-2.8267776300377943
aF-2.0552988412473323
aF-0.26517658053664284
aa(lp32
F-0.46052486843887885
aF-2.1923194630009726
aF-0.6344140627677255
aF-0.06309211384213764
aa(lp33
F-0.5382813274977071
aF-1.028494173516425
aF-1.144896461070803
aF0.021913540939577744
aa(lp34
F0.2542568597925362
aF-0.2039632776999033
aF-0.335032244711898
aF-0.06344032577706615
aa(lp35
F0.10243767692116691
aF0.1837172595121341
aF0.266954232739161
aF0.6706130046479682
aa(lp36
F0.44671723398105795
aF0.9281557482151632
aF0.2458932636702621
aF0.5826199576105168
aa(lp37
F-0.01766371973292992
aF-0.1497324722726693
aF-0.13533593546166325
aF-0.16922806420471764
aa(lp38
F-0.00617338435232741
aF-1.124625883098459
aF-0.12866336782675566
aF-1.162269575851998
aa(lp39
F-1.3686463810850173
aF-3.4667422150753446
aF-0.04105912971306183
aF-2.516759985479575
aa(lp40
F-2.742792758975753
aF-5.705870643670443
aF-1.1846959631250993
aF-2.5779505262253997
aa(lp41
F-3.8965929516071953
aF-6.618820479967
aF-3.9000962928514458
aF-3.4247489597622147
aa(lp42
F-4.663247669307278
aF-8.407117124940685
aF-4.583885127016336
aF-2.1432249755114103
aa(lp43
F-0.6835409525148792
aF-7.682680688049344
aF-5.6050439903841855
aF-2.659570956097176
aa(lp44
F-0.4538085968555653
aF-6.612704840916874
aF-3.494193057718529
aF-1.6113937832556025
aa(lp45
F-0.6713984633453597
aF-2.515645902364107
aF-3.567362040116768
aF-0.2995893914808151
aa(lp46
F-0.0997615312015636
aF-1.6293390937611423
aF-1.0604858805963997
aF0.30763922201910493
aa(lp47
F0.26087336469224476
aF0.42281217298613755
aF0.1825986986828287
aF0.6428669941092746
aa(lp48
F0.5639152557627208
aF1.037603049681218
aF0.4584440374202555
aF0.6150423138399683
aa(lp49
F-0.035264117478323684
aF-0.5265084064583796
aF-0.3189552694985105
aF-0.7891682912120204
aa(lp50
F-0.5949340113375352
aF-0.9253933112638243
aF-0.34331991176183185
aF-1.9202076803156112
aa(lp51
F-2.047977267895076
aF-2.8774392217766414
aF-0.19904796210049708
aF-6.383815721892838
aa(lp52
F-3.9321152760474023
aF-9.524094307626646
aF-2.326519364709358
aF-7.824271812483721
aa(lp53
F-6.5957835462377705
aF-10.318865696079161
aF-5.675592511674757
aF-9.080987880285132
aa(lp54
F-4.942959389116697
aF-7.856986686995831
aF-7.279229011303759
aF-8.665947329802808
aa(lp55
F-4.3566624207930325
aF-9.211089480784585
aF-8.805480898706456
aF-6.443411536586437
aa(lp56
F-3.108522847772339
aF-8.532332777047959
aF-7.049936588190542
aF-3.4133187608657902
aa(lp57
F-1.5473607624900698
aF-2.939619371548316
aF-4.686230798633885
aF-0.7591040610000857
aa(lp58
F0.06564916096253082
aF-1.398025286306837
aF-1.9889073926601832
aF-1.20776277112251
aa(lp59
F-0.09238203072499701
aF0.5001504271574171
aF-0.30650940510140223
aF0.698215558348556
aa(lp60
F0.556336909253766
aF1.2132379784213987
aF0.6968008290026998
aF0.7994557861933226
aa(lp61
F-0.24707243207340612
aF-0.6908518459026916
aF-0.38639129670625366
aF-0.6864618029202004
aa(lp62
F-1.4299992686719647
aF-1.790586234207855
aF-0.507826685628865
aF-4.248611801891009
aa(lp63
F-2.854385668410974
aF-4.247617089004504
aF-0.6092647755528152
aF-9.745091851250443
aa(lp64
F-6.824322631029192
aF-7.874554617682143
aF-4.058794732524577
aF-11.281602884565634
aa(lp65
F-8.82263422969773
aF-7.896865941875432
aF-8.949421797178267
aF-8.279867357882333
aa(lp66
F-10.457340204790412
aF-1.6509692588293023
aF-10.142442916785306
aF-10.453208836244555
aa(lp67
F-7.997375098560363
aF2.9643883110311458
aF-10.96809099590319
aF-6.0594859560498175
aa(lp68
F-5.960818919977094
aF-4.7728751944287025
aF-6.957473393793483
aF-2.617747218211132
aa(lp69
F-5.179124653367444
aF-2.7548848564428683
aF-8.090465037378475
aF-0.5401044828364614
aa(lp70
F-1.793215385840596
aF-1.3852182115895373
aF-3.9704434586838
aF-0.0943314399287834
aa(lp71
F0.4143760234134416
aF1.5644629641698735
aF-0.3681170441530211
aF0.42227931034070876
aa(lp72
F0.8223342568325697
aF1.3002993123805475
aF0.9577171213256179
aF0.8693488146196359
aa(lp73
F-0.8354299769752846
aF-0.3689959268166595
aF-0.9127271801791965
aF-0.9996901264407916
aa(lp74
F-2.8925155302806864
aF-1.278177927767036
aF-1.7777633540130235
aF-4.410400353456455
aa(lp75
F-3.7776788153605336
aF-3.0790690683715725
aF-2.230038864843679
aF-8.966511953568302
aa(lp76
F-7.867458242785263
aF-8.518114420887242
aF-3.1158125638801915
aF-8.468482496862888
aa(lp77
F-9.45708569020724
aF-4.221341413957977
aF-7.503796337273651
aF-9.278608132755574
aa(lp78
F-11.263401523431243
aF3.364913155985012
aF-9.814129883043918
aF-8.843648724438467
aa(lp79
F-10.764306385535628
aF9.877596820470513
aF0.5632645220781365
aF-8.889446651506761
aa(lp80
F-2.2163377502935466
aF4.71928844774167
aF-0.537908752118859
aF-2.1770705208250387
aa(lp81
F-3.298356885015641
aF4.23693208022613
aF-3.550400837019674
aF-1.3035561559797433
aa(lp82
F-1.9941493719916537
aF0.6163539135367655
aF-2.4977556526195275
aF-0.6060042561536548
aa(lp83
F0.41132981608100916
aF1.86366012515777
aF0.5073912994332085
aF0.1922233346635811
aa(lp84
F1.0112133234439005
aF1.317994249419701
aF1.4875747355498394
aF1.2664428931211413
aa(lp85
F-0.788461493573699
aF-0.19243546133426995
aF-0.545384713550043
aF-0.8120888238783214
aa(lp86
F-2.4200620556024544
aF-1.48188712344459
aF-1.7305792291455324
aF-4.595247493389725
aa(lp87
F-3.0799389309577103
aF-5.368777411410004
aF-0.9538979897634803
aF-6.710449720704902
aa(lp88
F-8.65674524278947
aF-4.259470920903724
aF-4.674861418243795
aF-5.859773723814703
aa(lp89
F-8.953900101065564
aF-5.6116868275970155
aF-6.339300009688106
aF2.774593494777337
aa(lp90
F-7.345671808072491
aF-0.9425122836860385
aF-5.767069386922922
aF8.41288051983138
aa(lp91
F0.0
aF0.0
aF0.0
aF0.0
aa(lp92
F-3.4938430037160524
aF1.0080338967371039
aF9.900395906601522
aF2.8631953830711385
aa(lp93
F-0.29685569821330815
aF2.0839972811642715
aF7.7293070841153755
aF0.9840084503748237
aa(lp94
F0.7793010269498005
aF2.109794179937553
aF2.6226862245522415
aF1.536288699341102
aa(lp95
F1.5584614316727694
aF1.9498685013894896
aF1.4147097465718756
aF1.4716632278098642
aa(lp96
F1.157737961989665
aF1.9576450525633835
aF1.5413780576425316
aF1.5263796482175835
aa(lp97
F-0.6129379839319264
aF-0.10688130212435504
aF-0.6041647204690246
aF-1.7161248751859906
aa(lp98
F-1.6597061691386332
aF-1.1941293137025015
aF-0.3326741853804967
aF-2.366143128653706
aa(lp99
F-3.1007096247881973
aF-1.7556850483421091
aF-0.7384368455475304
aF-2.558345146721278
aa(lp100
F-6.6727288397806985
aF-0.4152985400273405
aF-3.4553470933869175
aF-3.958021140866233
aa(lp101
F-7.9608756062168045
aF-0.8857076922903193
aF-3.7785283504297844
aF-1.2214808175968201
aa(lp102
F3.3949396650158468
aF0.5446696837037374
aF-1.840341664577227
aF6.587289557198108
aa(lp103
F9.9266101658246
aF4.904388064625314
aF4.187285243972311
aF4.941180748482468
aa(lp104
F4.359504801305962
aF3.2814303722115032
aF4.793573846028705
aF3.0288452742770864
aa(lp105
F-0.7464876697111369
aF3.5617491851531655
aF2.1816766539719934
aF2.2699098399216653
aa(lp106
F1.5695311195255544
aF2.0212512155809508
aF2.5575746192963362
aF2.0029365852449894
aa(lp107
F1.74205929844373
aF2.29940808240953
aF1.9942310117631759
aF1.809997268496926
aa(lp108
F1.4147244224163926
aF1.7941489103712256
aF2.3864549440375655
aF1.7402507432767056
aa(lp109
F-0.3346727314610968
aF-0.09179465733224339
aF-0.19145073856597422
aF-0.5656604072613163
aa(lp110
F-1.5019726463127667
aF-0.17371341930460374
aF-0.20794417844267535
aF-1.1029498492504093
aa(lp111
F-2.121213470831865
aF-0.16773707840831276
aF-1.0138584474507972
aF-1.3804918788914604
aa(lp112
F-4.385191008371766
aF-0.11309625310254495
aF-0.6721863124476658
aF-2.6816538593439554
aa(lp113
F-2.598445328180817
aF0.7023120370848934
aF-0.4830696919780755
aF0.24227224140459874
aa(lp114
F3.029084190885107
aF2.1578939152416012
aF0.5655610864271828
aF5.227603205631684
aa(lp115
F7.486991406756357
aF3.224417222415238
aF4.473937559765253
aF3.8647970650816452
aa(lp116
F4.34471511187439
aF3.5985514271071217
aF5.894124850118236
aF3.467557924207998
aa(lp117
F2.5514704752179576
aF3.222599671400258
aF4.151497717129122
aF2.9352896151615266
aa(lp118
F2.3459968913670117
aF2.5513188751081644
aF3.6143606647032045
aF2.493957869478962
aa(lp119
F1.626081150815814
aF2.4420166944850212
aF2.4032795123241124
aF2.2332453123155576
aa(lp120
F1.6581463399920395
aF1.5123320881371423
aF2.220130212882272
aF1.9574504910511934
aa(lp121
F-0.14683286781276703
aF-0.10201600732279345
aF-0.11785089410644202
aF-0.11614737895540542
aa(lp122
F-0.35682382429609344
aF-0.016152003819615544
aF-0.14420259095490381
aF-0.3708694153992485
aa(lp123
F-0.5723050435321138
aF-0.053124164420133874
aF-0.1945284592918063
aF-0.39236326979314834
aa(lp124
F-1.5810014201317477
aF0.30003956618637573
aF-0.12612536684760553
aF-0.44135477288004155
aa(lp125
F0.24356294202477535
aF0.23264667573225567
aF-0.13837113667893539
aF2.325339251933785
aa(lp126
F3.7747811463373444
aF0.24137822644617457
aF-0.015875513935222213
aF0.915075202266908
aa(lp127
F4.643549420639263
aF2.574319401937831
aF1.36928729495735
aF1.4764656999548325
aa(lp128
F3.963535115035956
aF1.4368708500125655
aF2.6339363140397625
aF2.453530751400745
aa(lp129
F3.842225199314998
aF1.5125174464585749
aF2.0405196553206495
aF2.3972733679810134
aa(lp130
F3.190861272646222
aF1.0125339744834179
aF2.173439190785915
aF1.582870421661275
aa(lp131
F1.3796055582006859
aF0.3998561442892917
aF2.818699729167578
aF0.4858806880203702
aa(lp132
F0.6486691392370216
aF0.19990490984479192
aF1.3468792541681398
aF0.6629057521330151
aa(lp133
F-0.07161918400528791
aF-0.10654320645063209
aF-0.12937624706649112
aF-0.14143849141533008
aa(lp134
F-0.18826621568500648
aF-0.21193435853603504
aF-0.12565891523539904
aF0.06619565976718017
aa(lp135
F-0.1019289592668262
aF-0.08945775371500062
aF-0.12177256613357153
aF0.2720633741682603
aa(lp136
F-0.13649705296899883
aF0.09010409412580091
aF-0.0918529929926908
aF0.724950662831531
aa(lp137
F0.08055492105518833
aF0.762809097061171
aF-0.23665580899242006
aF1.5946480559825893
aa(lp138
F2.616119425563539
aF0.9293957945144455
aF0.3799621879926827
aF0.8767850352827997
aa(lp139
F4.800240631410515
aF1.0332201638034877
aF0.5277782093162731
aF0.10309957804400653
aa(lp140
F3.0552678215507543
aF1.0055706267970324
aF0.6125999815554093
aF1.2244198468756402
aa(lp141
F3.090624751021147
aF0.9400988211123605
aF0.415274729153733
aF0.6974591698780032
aa(lp142
F0.33569385180207945
aF0.5359279697553148
aF1.9002734395781813
aF0.3509095782378245
aa(lp143
F0.20502191520491803
aF0.24002396292690115
aF0.9998424559007051
aF0.13083328188698695
aa(lp144
F0.048586051733891286
aF0.04712370230854783
aF0.45105778219799636
aF0.04798050967016663
aa.