(lp0
(lp1
F0.1174369278319737
aF0.5078047857405918
aF0.012322341920851219
aF0.1699005433517782
aa(lp2
F0.20362219321297645
aF0.012725699642993032
aF0.15096261034310468
aF0.4859170245370982
aa(lp3
F0.5467043502060223
aF1.0254925846445138
aF0.18091116975468147
aF0.529668582282862
aa(lp4
F0.47209935661471586
aF1.1024081967707642
aF0.5812577129265128
aF1.2844473982570115
aa(lp5
F1.2743152790064434
aF1.3251221819739196
aF1.1784315711749727
aF1.328842791783125
aa(lp6
F1.3294266692293173
aF1.3650757991636095
aF1.2706535649218664
aF1.3673255530226192
aa(lp7
F1.4362236727821283
aF1.530707581658612
aF1.2850843916058625
aF1.517746153593851
aa(lp8
F1.596301417752055
aF1.7250694479053421
aF1.541170542856529
aF1.788519427296196
aa(lp9
F1.7818559487797907
aF1.9708226347012383
aF1.6629328531917444
aF1.816929203095232
aa(lp10
F1.962969596626098
aF2.1844155383177584
aF1.9067218337059513
aF1.8906123160476414
aa(lp11
F1.8713985849730506
aF1.985404201763341
aF1.941941090886702
aF1.8351280160704426
aa(lp12
F1.7901863182113813
aF1.9566775393273792
aF1.8961671619300708
aF1.8653239019330994
aa(lp13
F0.011623222152622582
aF0.01248836829384412
aF0.47260927997673485
aF0.7689365153078876
aa(lp14
F0.15126550477473327
aF0.42242720924907756
aF0.012810298395581482
aF0.8918518250375045
aa(lp15
F0.4010789141564817
aF0.48359410382281387
aF0.7477233249665918
aF1.3082293643495002
aa(lp16
F1.174091806292126
aF1.3777629190833027
aF0.9519476348817886
aF1.4130109009871128
aa(lp17
F1.316682559605637
aF1.4091050020887539
aF1.3777805284262057
aF1.4146455596091538
aa(lp18
F1.346486070894292
aF1.4072670364679178
aF1.3354517870439087
aF1.5314380590649592
aa(lp19
F1.574161628452908
aF1.6380395122066416
aF1.4559286577226456
aF1.7136915105136803
aa(lp20
F1.6245403988857121
aF1.892212040754923
aF1.690212947292889
aF1.8869731548222646
aa(lp21
F1.8458049531343688
aF2.142170108679471
aF1.8243355514779493
aF2.1445031015888576
aa(lp22
F1.9799421665571613
aF2.3692547396581007
aF2.054949049952346
aF2.1382821408606456
aa(lp23
F2.007753352028344
aF2.2713839766551613
aF2.2355686371532375
aF2.036615773733076
aa(lp24
F1.8087065948320926
aF2.1955908680050342
aF2.1099155584088267
aF2.0375472988699643
aa(lp25
F0.011384513256692038
aF0.34426686603858375
aF0.05368685209819483
aF0.3872255515688501
aa(lp26
F0.012138774924024862
aF0.08930974668674035
aF0.35908405021010203
aF0.717936577624954
aa(lp27
F0.015872008284279468
aF-0.8124697770331878
aF0.3714483354982007
aF0.8527932043670442
aa(lp28
F1.3648942846173486
aF0.0930108772648145
aF0.4905155542811848
aF1.4044448217955372
aa(lp29
F1.437419686161333
aF-0.6007566935210926
aF1.3743951661544382
aF1.4356996035391998
aa(lp30
F1.431621833929977
aF0.7910826930319127
aF1.427249092190757
aF1.5142568590196681
aa(lp31
F1.686139635713431
aF0.19931995337761393
aF1.5219789453008459
aF1.8140526002235793
aa(lp32
F1.8506881163246065
aF0.6969120293374947
aF1.57994626797373
aF2.061054643650838
aa(lp33
F1.9609768378344754
aF1.4779379144975684
aF1.9516762913400503
aF2.333483177970238
aa(lp34
F2.255836079531058
aF2.644304436249758
aF2.2334363267865824
aF2.3919884974400953
aa(lp35
F2.331437486232272
aF2.5458046484979135
aF2.492165928334648
aF2.229089549509462
aa(lp36
F2.0285291794428386
aF2.4476074187654797
aF2.374917383982791
aF2.319046081686463
aa(lp37
F0.060426919636536465
aF0.028417689090815455
aF0.060453520741201666
aF0.0855819240807659
aa(lp38
F0.011678394125392259
aF0.09445433778194627
aF0.07547288603255699
aF-0.8448631674983006
aa(lp39
F0.21288143426869843
aF-0.8512250128754955
aF0.010628509615426674
aF0.15120449659772806
aa(lp40
F1.4357796222466817
aF-2.2995106440526953
aF-1.8753007999842652
aF-0.7650806193426309
aa(lp41
F0.8117306851401718
aF-2.8953329913218107
aF-0.09435515810935136
aF0.33581439167725663
aa(lp42
F1.1800685241854503
aF-0.6646871506382754
aF-0.4469209294928204
aF0.567286421218741
aa(lp43
F1.49309324922218
aF0.2869794884523615
aF0.5973830919709042
aF0.8489559599123249
aa(lp44
F1.4832574575395594
aF-0.3284187670587731
aF0.08863824705102574
aF0.7388393009351528
aa(lp45
F2.263547824748748
aF1.4943063378301233
aF0.8096635243624287
aF2.3872152239879747
aa(lp46
F2.53041943640189
aF3.051049401475495
aF1.5961468477441532
aF2.6102578315656833
aa(lp47
F2.4313942227145033
aF3.0123251255632866
aF2.795669769934852
aF2.57927286269118
aa(lp48
F2.3666236299317074
aF2.7368309952189103
aF2.6062525075601166
aF2.5305900152991168
aa(lp49
F0.060237833322887416
aF0.03846510083652195
aF0.010015241576285734
aF0.011128642641166713
aa(lp50
F0.012365163017789931
aF0.21857370316556762
aF0.010016037379384666
aF-0.9899238268866919
aa(lp51
F-0.9885161928890035
aF-0.9898929209803651
aF0.01116246459917129
aF-2.8869771806224382
aa(lp52
F0.15156105544761206
aF-2.8209285810696056
aF-0.9870639817373891
aF-2.0606380852491597
aa(lp53
F0.4430922323437704
aF-1.9391172744612002
aF-2.88451411625103
aF-1.1335811207385749
aa(lp54
F0.42923323175599426
aF0.4416242194594418
aF-2.8895561679489714
aF-0.44189104133392765
aa(lp55
F0.11164073978533856
aF1.6363334481518588
aF-1.1821255600399765
aF-0.34940819363881115
aa(lp56
F0.6630723130208437
aF2.0893726200493616
aF0.08262782897813464
aF1.8548020363135915
aa(lp57
F1.0433706957938855
aF1.745423154965473
aF-0.2548294631678066
aF3.114257031786522
aa(lp58
F2.8491224800643207
aF3.473179063119088
aF1.8443799864145483
aF2.8774021115401087
aa(lp59
F2.902509651466681
aF3.375362313047979
aF3.1848579448962493
aF2.843218148644979
aa(lp60
F2.550988566584497
aF2.9769449418502134
aF3.0374071744197386
aF2.9026612172983044
aa(lp61
F0.010021932668155029
aF0.2359628408783171
aF0.00919601076156114
aF0.16397855551982643
aa(lp62
F0.18385656124462824
aF0.2558037830323914
aF0.14330094865906365
aF-0.946269942226326
aa(lp63
F-0.9897823029924235
aF-0.6946112692505954
aF0.19174969867386152
aF-2.3751452405208267
aa(lp64
F-2.0866973915807274
aF-1.5964831560005117
aF-0.9870998060807713
aF-1.9613966467099577
aa(lp65
F-1.8791667602600939
aF0.8303366815337478
aF-2.574573441903784
aF0.8700660105019564
aa(lp66
F-0.9336608495460638
aF3.9318158549399573
aF-2.210597149336788
aF3.299994116235878
aa(lp67
F-0.16580330951111544
aF5.686502311918511
aF0.8859944467729024
aF4.889769676112341
aa(lp68
F-0.06584089965522306
aF4.334886927363715
aF1.8667241552530547
aF2.5589656954585047
aa(lp69
F1.4636209231180342
aF3.5379366204929044
aF1.6630663556133178
aF3.3963566256837137
aa(lp70
F3.3354421739683335
aF3.8099699887835805
aF2.494804506388317
aF3.337592290523667
aa(lp71
F3.055517096790982
aF3.773668712896329
aF3.6528401365408265
aF3.145235074371044
aa(lp72
F2.8864820370784985
aF3.314762853717631
aF3.4039380608471275
aF3.116248773442989
aa(lp73
F0.6498047116552611
aF0.15705099564251804
aF0.03575741769316315
aF1.5733038769890315
aa(lp74
F0.1915080143635496
aF1.852306084803031
aF1.0988389313660063
aF-0.746969011773841
aa(lp75
F-0.99082158064032
aF0.3833834056366303
aF0.19700819813488918
aF-0.639726712612238
aa(lp76
F-2.5745842602602242
aF1.7129123608712953
aF-0.7515773587588988
aF0.6663978471646312
aa(lp77
F-2.214908465328726
aF4.218532675705057
aF-0.4723912788997836
aF4.215156773583606
aa(lp78
F0.6771151548469625
aF5.785040094484229
aF0.8156843026815406
aF5.271083566456778
aa(lp79
F2.9278457497610546
aF8.654050276691375
aF5.700886424350779
aF4.180193348260233
aa(lp80
F2.3386530485111927
aF7.387232820431898
aF5.89741282805884
aF4.136175581829997
aa(lp81
F3.063785685174376
aF5.168537978728599
aF4.303675508701361
aF4.317482648039806
aa(lp82
F3.812885770917954
aF4.617264368730819
aF3.362987046019458
aF3.9461724233932016
aa(lp83
F3.5937003216718058
aF4.189247815230115
aF4.1870700012149005
aF3.571032321262327
aa(lp84
F3.1611263996200605
aF3.7668949148704867
aF3.5988679936748658
aF3.5248760080971926
aa(lp85
F1.1743512573913075
aF0.0
aF0.673552933442316
aF0.00795069022809847
aa(lp86
F1.3379286343446082
aF2.0717437330458073
aF0.16103950577554454
aF0.39064949223582984
aa(lp87
F-0.6960767669817858
aF1.1904579875397392
aF0.23937682823791287
aF1.733724440475438
aa(lp88
F-0.6620200627134438
aF3.1532024331698705
aF0.3060930780616618
aF4.269904134694133
aa(lp89
F0.8122281275664516
aF4.499427485065703
aF1.7567259464796243
aF6.632315333276338
aa(lp90
F4.425418087923962
aF6.253485848027767
aF4.234012524655622
aF7.321471053943057
aa(lp91
F0.0
aF0.0
aF0.0
aF0.0
aa(lp92
F4.362639902269534
aF6.355786918065501
aF9.842798777750586
aF5.9236746914797145
aa(lp93
F3.840031996437787
aF5.911381713394391
aF7.026143038423278
aF4.912758637465347
aa(lp94
F4.28346166151137
aF5.069639402522868
aF5.2236190417650805
aF4.5582632441755475
aa(lp95
F3.9032264665059997
aF4.4986653228116955
aF4.631770230876801
aF4.0154924469719475
aa(lp96
F3.767901962364924
aF4.021655907300792
aF4.283761148967646
aF3.903479693941493
aa(lp97
F0.6634887852955641
aF0.0
aF0.005001900310405806
aF0.0
aa(lp98
F1.5376733968068832
aF3.2001607756998056
aF0.08083275104693391
aF1.2744595631194495
aa(lp99
F-1.0001522373371916
aF2.845534142623154
aF2.1534157531918177
aF3.043729550634038
aa(lp100
F1.7062363681710604
aF2.4679956261435807
aF1.773917725660543
aF4.025529642102877
aa(lp101
F5.613929447938698
aF5.820042628516644
aF1.9000109751337326
aF5.831953408096696
aa(lp102
F6.417981559793703
aF6.440502565927811
aF4.535016257332371
aF7.139026068144957
aa(lp103
F9.679995240104011
aF6.427591341143429
aF6.330827511873437
aF6.837491582397221
aa(lp104
F7.244081927348626
aF6.326327300244592
aF7.456860647422337
aF5.987060326823192
aa(lp105
F5.315375059495323
aF5.483616210057077
aF6.763922468110616
aF5.348028430261923
aa(lp106
F4.852613726461482
aF4.725193591666394
aF5.985345077821382
aF4.783968883686804
aa(lp107
F4.416327519461587
aF4.491243848743515
aF4.992806333909692
aF4.389593972552927
aa(lp108
F4.386367932913754
aF4.207298332318354
aF4.177019309671403
aF3.9738963298538033
aa(lp109
F0.005001900310405806
aF0.0
aF0.0
aF2.7091776913673273
aa(lp110
F2.84704055163958
aF2.962796210228983
aF2.0094723327343567
aF3.852103468025797
aa(lp111
F3.0178940706184663
aF2.592113911757105
aF3.3312610478618963
aF4.08084416116021
aa(lp112
F3.1359010825433042
aF4.653756994630422
aF3.0718233896577427
aF5.572770756021658
aa(lp113
F4.580155914207905
aF5.098931520603713
aF4.866179130378541
aF6.284591721009112
aa(lp114
F6.200003553314113
aF5.270993511063372
aF5.831166847193285
aF6.646389457357674
aa(lp115
F7.498538672515782
aF6.0642607974260345
aF5.906164628656619
aF5.899604782995198
aa(lp116
F6.685456906635479
aF5.155856234396753
aF6.782668905474727
aF5.608031968617103
aa(lp117
F5.624508491060649
aF5.008780729813444
aF6.096459007432916
aF5.060383459586
aa(lp118
F5.055086641700394
aF4.605617487495479
aF5.365927151782743
aF4.903407148708517
aa(lp119
F4.6486384781512715
aF4.245350382151996
aF4.755712064316893
aF4.516944954322202
aa(lp120
F3.9182435191036262
aF3.880350477037417
aF4.4917910810534565
aF4.270976617066654
aa(lp121
F0.0
aF0.0
aF0.0
aF0.0
aa(lp122
F3.423988528551369
aF2.604109832501372
aF0.0
aF3.1000163782717323
aa(lp123
F3.544735806891283
aF3.307299048037575
aF2.971737709093789
aF4.473966987300692
aa(lp124
F4.854531361546458
aF4.174083007443492
aF3.6309790583513974
aF5.238594572760991
aa(lp125
F5.774188725461473
aF4.704547120657719
aF4.689531650200351
aF5.499858497456031
aa(lp126
F5.662901870455726
aF5.16341002954596
aF5.190875327519391
aF5.544113818688976
aa(lp127
F6.681812185611777
aF5.831562289028861
aF5.83192499884333
aF5.3991460116419345
aa(lp128
F5.42319553491981
aF5.196781842927785
aF5.838173500679079
aF5.019904717376563
aa(lp129
F5.186038651602678
aF5.0750027050606
aF5.318766280339441
aF5.016968756035431
aa(lp130
F4.783009371713071
aF4.941599834093925
aF4.959323421978978
aF4.251164255028513
aa(lp131
F4.701787175128587
aF3.825798617149815
aF4.706127419230144
aF3.8220700078979464
aa(lp132
F4.21405876864338
aF3.453575348297836
aF4.2175662241347
aF3.9511383458277205
aa(lp133
F0.0
aF0.0
aF0.0
aF3.0187577902379883
aa(lp134
F2.8759434561379598
aF0.0
aF2.0366722065703855
aF3.6057100179120707
aa(lp135
F3.3443394058628635
aF3.9508790615085756
aF3.1255406114271964
aF4.061676793985044
aa(lp136
F4.663821398342411
aF4.078258134523908
aF3.6508484541087904
aF4.563607745648818
aa(lp137
F5.243709896271927
aF4.684216102106856
aF4.166708940166063
aF5.104002264018265
aa(lp138
F5.4201704703404845
aF5.15881773061459
aF4.656673047182594
aF4.9181179090443985
aa(lp139
F5.602683446989198
aF5.60749902230908
aF5.2557173334797005
aF5.240504328261329
aa(lp140
F5.5385380568170595
aF5.228303908199152
aF5.4124660075317905
aF4.838014268035455
aa(lp141
F4.9906435702878
aF4.723000116267759
aF5.099605024466792
aF4.249649084882933
aa(lp142
F4.700762613287999
aF4.2492255068359315
aF4.68227882793152
aF4.176413768338597
aa(lp143
F4.249393162909038
aF3.826151093845862
aF4.138767066807355
aF3.537242923005187
aa(lp144
F3.821117978838428
aF3.472001029248634
aF3.826273692512015
aF3.5963526095335046
aa.