(lp0
(lp1
F0.0
aF0.04482965273291234
aF0.004962461672823701
aF0.00023883180015314242
aa(lp2
F-0.00012125810133547724
aF-0.002306453843674978
aF0.0006429194100346297
aF-0.0031840707988764006
aa(lp3
F-0.009433640759946559
aF-0.10182950621075933
aF0.019875219418895893
aF-0.016354809912447144
aa(lp4
F-0.12641423315150424
aF-0.2358600698366715
aF-0.11314112449973847
aF-0.2309330930614713
aa(lp5
F-0.5507668932914884
aF-0.4242121292203278
aF-0.22423470354250027
aF-0.6866500691649233
aa(lp6
F-1.2455728271440494
aF-1.3720336080034394
aF-0.5791590537834509
aF-0.9697789308745214
aa(lp7
F-0.9048038118153316
aF-1.7138561020846637
aF-1.2731416171794026
aF-0.46596848664057633
aa(lp8
F-0.525468037296861
aF-0.727527647666757
aF-0.7031369223129379
aF-0.4123766175331908
aa(lp9
F-0.029413566053726286
aF-0.012779365200856494
aF-0.03511970473098617
aF-0.02051817439902355
aa(lp10
F-0.035404714479968846
aF-0.08323592618191739
aF-0.0005735778698518173
aF-0.17003426311521003
aa(lp11
F-0.060432606373818434
aF-0.08516993825842006
aF-0.058623336074853566
aF0.2799042842098009
aa(lp12
F0.021949318631913062
aF0.011108444415939896
aF-0.07591262106345413
aF0.2965493272979134
aa(lp13
F0.0046210765789796516
aF0.15789118332773933
aF0.00021609824772964416
aF-0.003985593569096977
aa(lp14
F-0.042840685698120246
aF-0.12551011605201032
aF0.2073702666677529
aF-0.0565554064451181
aa(lp15
F-0.7435428981345379
aF-0.3347112235336114
aF0.019654829878565726
aF-0.24170403284930275
aa(lp16
F-0.5687014326892577
aF-0.9688368775192024
aF-0.12457465865407058
aF-1.0491030431557755
aa(lp17
F-1.106490247738016
aF-3.6832964248148636
aF-1.2191560517184628
aF-2.413406671615949
aa(lp18
F-0.6505303201280148
aF-4.0134660186848095
aF-1.837161374367156
aF-1.5878988769751523
aa(lp19
F-1.5440790066985848
aF-2.165936776660753
aF-1.9502214476761581
aF-1.1104374523897906
aa(lp20
F-0.7124819109898568
aF-1.900457519034353
aF-1.3363514912783505
aF-0.43899463397457494
aa(lp21
F-0.23995424174816943
aF-2.27888639400669
aF-0.5422000587784359
aF-0.07901058722811224
aa(lp22
F-0.1995476811648574
aF-0.011141803209283551
aF-0.3757729416117314
aF-0.2818709092474253
aa(lp23
F-0.24536625406319057
aF-0.5044080655558768
aF-0.13251666737086665
aF0.13612665690435333
aa(lp24
F0.032771450114969854
aF0.4195269582840381
aF0.001026204267824557
aF0.02125081044377135
aa(lp25
F0.0145843246983603
aF0.7562004066605245
aF8.059289916830466e-05
aF0.0
aa(lp26
F-0.3075696423679664
aF-0.038982232955019805
aF0.3156310652402419
aF-1.3985952582306995
aa(lp27
F-1.2965233696040912
aF-1.9149205007739227
aF-0.057389520177786535
aF-1.4362611679088473
aa(lp28
F-0.9664523855005328
aF-2.265456267152453
aF-3.051777068796736
aF-3.165223548085133
aa(lp29
F-1.8025935488750364
aF-3.2079376618335473
aF-2.7619484662996974
aF-3.6681152930680327
aa(lp30
F-4.023530000696644
aF-5.698972830869072
aF-3.494625413986697
aF-3.1574412725514316
aa(lp31
F-1.5161189534175603
aF-5.099534157103843
aF-4.104448671335881
aF-2.856640610469561
aa(lp32
F-1.6827970162502957
aF-3.5320609200037376
aF-2.98001798521951
aF-2.026021280693585
aa(lp33
F-0.8618820239884029
aF-1.6865483095090001
aF-0.9721625998989193
aF-0.10206161115590967
aa(lp34
F-0.4766954132669878
aF-0.6163599505867327
aF-1.1010526783160517
aF0.023824224264163203
aa(lp35
F-0.09641283560864079
aF-0.1454735544164844
aF-0.2514627867694011
aF0.2862588444976155
aa(lp36
F-0.021902120035425923
aF0.485777490763367
aF-0.01517831677837514
aF0.11852225020063409
aa(lp37
F0.03924531554554619
aF0.15964859520145894
aF1.1239077106983022
aF0.0
aa(lp38
F-0.36294352391911644
aF0.22363986141740633
aF-0.07076477141567433
aF-1.5930418813535552
aa(lp39
F-1.4318209863465678
aF-1.1999615561652697
aF0.006644152902352613
aF-2.113658631238891
aa(lp40
F-2.699201362553232
aF-1.9462326927732716
aF-1.8027617349777514
aF-4.617909021016718
aa(lp41
F-3.386028368482906
aF-6.461881408807514
aF-4.878636591011894
aF-4.923708907753247
aa(lp42
F-5.474219478086996
aF-7.132279037776638
aF-5.325696157528749
aF-5.447592301216118
aa(lp43
F-3.6060236995958275
aF-5.681010682169697
aF-5.396356121399979
aF-4.7221670293593245
aa(lp44
F-3.269321286639262
aF-3.6429973595876666
aF-4.5440745160768685
aF-1.8985350569224912
aa(lp45
F-2.240274827650559
aF-1.8053575015931227
aF-3.6457958631456266
aF-0.17545745636918808
aa(lp46
F-0.5187073213096547
aF-0.5515073433759415
aF-1.7541779012192134
aF0.1861820421813074
aa(lp47
F-0.036127017509919035
aF-0.1294088314390497
aF-0.10185086080225202
aF0.41630031038855125
aa(lp48
F0.07055357531129974
aF0.5078985785316219
aF0.09279205564861091
aF0.1815569013431919
aa(lp49
F0.1160596633498598
aF2.3767991371281827
aF0.4419894127574026
aF0.12125315583423618
aa(lp50
F-0.2899439979548503
aF-0.06913823368578556
aF0.8085490437190526
aF-1.1774317321186012
aa(lp51
F-0.8009620975672512
aF-0.9000418922500292
aF-0.011717684280806537
aF-3.7355397060661315
aa(lp52
F-2.8489792010465362
aF-2.861433594670422
aF-3.2991751499956044
aF-6.514533141579453
aa(lp53
F-5.513181738995927
aF-7.277585587605161
aF-4.381408569219745
aF-5.998592841268536
aa(lp54
F-6.482291784888746
aF-6.59383507803535
aF-6.139316302975484
aF-6.068992220892229
aa(lp55
F-5.122715130463073
aF-5.283505923181847
aF-5.590590785277841
aF-5.77597553009902
aa(lp56
F-5.30135370969949
aF-5.0281750023399665
aF-6.40941441514244
aF-2.1080998007495304
aa(lp57
F-2.2538670668417895
aF-1.5765375884427932
aF-4.415053266007946
aF-0.6277198441221359
aa(lp58
F-0.33243185260228914
aF-0.09640030489156141
aF-2.534900157976986
aF-0.21603059634218386
aa(lp59
F-0.1405605715993748
aF0.1124867771862483
aF-0.368467751222749
aF0.475630657535839
aa(lp60
F0.2552739270355134
aF0.6662246841567061
aF0.14941951545200294
aF0.26231357545338
aa(lp61
F0.3506536657984485
aF3.9061704324706894
aF0.3424722128142328
aF0.3055983182230841
aa(lp62
F-0.553493852251967
aF-0.5812470735350661
aF1.2667058835365055
aF-1.45315915164651
aa(lp63
F-0.9542079095624103
aF-0.8953538346846588
aF-0.44526646747470444
aF-2.040317699107414
aa(lp64
F-1.5865926793483844
aF-1.844554374067545
aF-1.1298383420432774
aF-5.199201358413723
aa(lp65
F-6.567625428394968
aF-5.746762501274504
aF-3.198844836772635
aF-5.824468582139528
aa(lp66
F-7.5537688560185625
aF-5.4107009835642135
aF-6.497786984652638
aF-6.689763680116609
aa(lp67
F-4.121425422024139
aF-5.106683045206283
aF-6.436667901159631
aF-3.617886459359866
aa(lp68
F-5.877086063170969
aF-4.390252600069086
aF-4.932168042567456
aF-2.017854118784371
aa(lp69
F-2.6572179876349136
aF-2.396855624711928
aF-3.724469161163172
aF-0.06673613775897311
aa(lp70
F-0.21225189337068404
aF-0.7538009461043105
aF-2.379823292970724
aF0.12679853492532858
aa(lp71
F0.05835208941571182
aF-0.03299748663656714
aF-0.517828565661813
aF0.4914030053684528
aa(lp72
F0.32400687429096
aF0.8039320200878075
aF0.19167001422373076
aF0.4170898195586008
aa(lp73
F0.5128862854029854
aF4.713654374598527
aF1.1999147717211442
aF0.47059282134064745
aa(lp74
F-0.12583879793833874
aF1.3778357283186855
aF-0.0014967643854207474
aF-0.5958672014571132
aa(lp75
F-0.735113032241397
aF0.8626163725156047
aF0.285378973197777
aF-3.8476877077934577
aa(lp76
F-2.197037965199221
aF-1.2537822218328798
aF-0.8406931056299907
aF-4.262730941689886
aa(lp77
F-6.609252344173345
aF-1.5940736631791448
aF-2.160890206106778
aF-4.708169378156503
aa(lp78
F-6.361016018905856
aF-4.558011276783835
aF-6.878546943936005
aF-5.446705564415428
aa(lp79
F-4.763482169092882
aF-3.9353877583099255
aF-5.390931798670317
aF-3.8638434483628137
aa(lp80
F-3.6152522424758926
aF-0.6422428800120253
aF-3.8089724142699835
aF-2.545425458865958
aa(lp81
F-2.151871901310045
aF-1.5823879021608873
aF-2.955013074416275
aF-0.7314822295980008
aa(lp82
F-0.12598527281076094
aF0.1338023491319167
aF-1.3148921687184207
aF-0.02846373764365688
aa(lp83
F-0.000309304528425057
aF0.21524297345920895
aF-0.28376186974753725
aF0.5823132365206488
aa(lp84
F0.29617704782996535
aF0.9302919317781261
aF0.25828109997407456
aF0.5163473152311264
aa(lp85
F1.1045093269490152
aF5.0666388844087304
aF1.354496300942892
aF0.9238083201487356
aa(lp86
F-0.004654619980078932
aF2.803043630223492
aF0.8152724238444468
aF-1.4424217701733935
aa(lp87
F-1.5013357930073805
aF1.4471419939648789
aF-0.1863267907795194
aF-1.4228281162111183
aa(lp88
F-1.9999803587571057
aF2.535609052554178
aF0.38493397792903317
aF-3.6854618135631307
aa(lp89
F-4.633563006866592
aF-4.092896716496984
aF-1.2720973524815409
aF-2.4204971446438264
aa(lp90
F-4.154065113259303
aF-1.931516511386738
aF-2.2084701686992703
aF-4.7746173158992296
aa(lp91
F-5.07993108797729
aF-2.706141947777549
aF-4.231147486411716
aF-3.4919159810588027
aa(lp92
F-1.874022983674839
aF-0.8690846330911606
aF-1.7530007744808556
aF-0.5806645093130287
aa(lp93
F-1.3918711190626178
aF0.3786526683388247
aF-1.5761883601931357
aF-0.1156045037569223
aa(lp94
F0.043849697963952425
aF0.06745408314240534
aF-0.9427997419720598
aF0.20979871395583036
aa(lp95
F-0.14250744257532552
aF0.23204818831510984
aF-0.06908666746640221
aF0.6863073526784138
aa(lp96
F0.3630614463653718
aF1.0969954169882068
aF0.27411736520679153
aF0.6474896808451657
aa(lp97
F1.887080962597862
aF6.776096288002989
aF3.2508591072357564
aF2.0102428919919166
aa(lp98
F0.6296451977221849
aF-0.27100188908955414
aF3.52705039212572
aF2.6608302953738745
aa(lp99
F0.5386217667515241
aF3.5125688205474415
aF0.2001940626851465
aF-0.31619413658678275
aa(lp100
F-1.000486636155463
aF0.8970088399920402
aF1.3904044257062877
aF0.45016423649711335
aa(lp101
F-1.0097633233914614
aF0.8992545067130386
aF0.8666503060956496
aF-1.5915948921261487
aa(lp102
F-2.693448185116588
aF0.03851848827533619
aF-0.026329112959825374
aF-0.30644714413205754
aa(lp103
F-1.7949218925945214
aF0.9306503089088536
aF-0.09356878330236218
aF0.0534277695727824
aa(lp104
F-0.0721896240890142
aF0.07394909159593599
aF-0.7350894352907718
aF0.7182049142694261
aa(lp105
F-0.04617883610222488
aF0.8777248618674707
aF0.06336054841047377
aF-0.39423982076427
aa(lp106
F-0.1425429740899202
aF0.13027634688130318
aF0.21689925004902216
aF0.517097517655261
aa(lp107
F0.052831019886571545
aF0.2047839237239751
aF0.22589415201737373
aF0.7897509331832712
aa(lp108
F0.6038641676039331
aF1.2446185522536626
aF0.6113286844876202
aF0.7848049207188269
aa(lp109
F0.7475394378619931
aF4.969953517482368
aF3.552720617896186
aF6.952902011067036
aa(lp110
F3.6479398638107843
aF7.660664712344817
aF4.550491424660345
aF1.5099942620690014
aa(lp111
F0.8664091762464402
aF5.876053215855478
aF0.09010984548166315
aF3.481375194589171
aa(lp112
F0.1311521195229295
aF4.180503378542469
aF2.337473832879839
aF0.9007657731278266
aa(lp113
F0.7852947107183957
aF3.3129611590408397
aF1.2290902615458255
aF0.9318475325954617
aa(lp114
F-0.930050058776259
aF0.9538748071194447
aF2.638312607700153
aF-0.1988665934194095
aa(lp115
F-0.11311143019524439
aF1.609099418160723
aF0.2946572096909658
aF-0.13755876587931182
aa(lp116
F-0.5485344199899672
aF0.11324949344674534
aF1.0432318783127452
aF-0.03175737018230812
aa(lp117
F0.10720844934647106
aF1.7152008541426533
aF0.06333373780166385
aF0.22286786476645204
aa(lp118
F-0.11297321387333742
aF1.666138871023659
aF0.13548281663598166
aF0.05035445729949191
aa(lp119
F0.16588790580228185
aF0.22039256370982507
aF1.4910799329945996
aF0.48249820587601405
aa(lp120
F0.4138464882247094
aF1.36751081130367
aF0.8167552970461439
aF0.7073268127685831
aa(lp121
F0.7211041230085945
aF9.906687776495092
aF9.35021104826259
aF6.517542073557058
aa(lp122
F5.737991096305903
aF7.464508656883617
aF9.224853036193915
aF3.6580705930707387
aa(lp123
F5.110170986719969
aF7.052440443471361
aF4.232897710559055
aF4.794197375116152
aa(lp124
F2.215975818329861
aF6.129611951156618
aF4.45186692844742
aF2.961636729819272
aa(lp125
F1.5713824760516182
aF4.053468294225026
aF5.083132846586462
aF3.35547245639757
aa(lp126
F0.5214589268431535
aF2.0911938207835954
aF4.264225423127337
aF0.9499545674688112
aa(lp127
F0.5634159995611874
aF2.700637492716281
aF1.8129698651163377
aF0.6819405287342202
aa(lp128
F0.11343967739072087
aF2.721326798520996
aF0.7057814976500659
aF0.5263573353237988
aa(lp129
F0.67554330151591
aF2.470266444447687
aF1.6106483571359926
aF0.5062302690882887
aa(lp130
F0.2533552847612719
aF0.7320454471046451
aF2.320043742697682
aF0.3453435311435995
aa(lp131
F0.2241309027374086
aF0.6010204995653297
aF1.9172356438027547
aF0.5155567438740797
aa(lp132
F0.7283017945940543
aF1.567047036481671
aF0.9504384805655962
aF0.8908555982711528
aa(lp133
F0.0
aF0.0
aF0.0
aF0.0
aa(lp134
F7.7470897548806255
aF7.986411237633698
aF9.771386406720692
aF6.978665902674747
aa(lp135
F6.490943206777343
aF6.770355906034103
aF8.729395153046264
aF6.4220929676235405
aa(lp136
F5.420996192501151
aF5.9763633151254
aF7.234873077678949
aF5.210026254454651
aa(lp137
F4.4726000627635525
aF4.970489767952586
aF6.147700557781323
aF3.8997076131459747
aa(lp138
F3.733859399399195
aF4.36181874690145
aF5.113150546232259
aF3.4285526013346646
aa(lp139
F2.897341098396694
aF3.326653990759949
aF4.693741080861379
aF2.7983882971829495
aa(lp140
F2.716556179665586
aF2.953090909082515
aF3.9995664439923773
aF2.3245250327305373
aa(lp141
F1.971208112313293
aF2.4510894872563447
aF3.307362349501366
aF1.9973744198162524
aa(lp142
F1.6701837804946273
aF1.956787032687076
aF2.7364674408859977
aF1.55014214211367
aa(lp143
F1.422965787274253
aF1.2549148810898338
aF2.264636706951234
aF1.0186404620255216
aa(lp144
F1.093062361734826
aF1.062126143019931
aF1.9046452890117955
aF1.3364979068688785
aa.