(lp0
(lp1
F-0.024535566935199125
aF0.051112639574436805
aF-0.003709537951275107
aF-0.05356448799900047
aa(lp2
F-0.10866582928727142
aF-0.16171407930910348
aF0.0008557463564094459
aF0.0
aa(lp3
F-0.27592470774292777
aF-0.12183217438136919
aF-0.036173537694124354
aF-0.05791935624431429
aa(lp4
F-0.19418499822255936
aF-0.20581118699490086
aF-0.1482399366519174
aF-0.5000414194272175
aa(lp5
F-0.8912015498598732
aF-1.9584666047194177
aF-0.4220302872883487
aF-1.4268767609502684
aa(lp6
F-1.2081877732989432
aF-1.4748397440327041
aF-0.7737971799946588
aF-1.410845097967126
aa(lp7
F-1.1430930384496818
aF-1.8906756526617097
aF-1.2944331498374773
aF-0.5767328208115599
aa(lp8
F-1.0544495199236161
aF-1.3722804511498332
aF-0.9802915214644703
aF-0.2967014929417016
aa(lp9
F-0.20862013712173366
aF-0.794799728180779
aF-0.22967508309257473
aF-0.06936520077672646
aa(lp10
F-0.07014046020376641
aF-0.43282639927598243
aF-0.19446314960802513
aF0.14243475234615294
aa(lp11
F0.02870969099977243
aF-0.12235027505211939
aF-0.143444442088488
aF0.30133435956122684
aa(lp12
F-0.04603423582295911
aF0.3654826557239313
aF-0.04994631051756243
aF0.000957737997704454
aa(lp13
F-0.006017473915773676
aF-0.03208360159877228
aF-0.10089196269686015
aF-0.02328485870432028
aa(lp14
F-0.2473275105384819
aF-0.0823688185605237
aF0.015196026670462048
aF-0.1357602601585834
aa(lp15
F-0.6936639548009528
aF-1.881261214415811
aF-0.04667883917147449
aF-0.8503081273096798
aa(lp16
F-0.944306578292591
aF-1.85805651691365
aF-0.3108749949294046
aF-0.8329768146791929
aa(lp17
F-1.3563021923545617
aF-2.248826054137069
aF-0.8393250697472033
aF-1.9973927565394618
aa(lp18
F-1.6319071353782857
aF-2.0901319669965903
aF-1.7577535759334895
aF-1.0855741289043237
aa(lp19
F-0.7728651410107705
aF-3.0871450970914154
aF-1.9389281097185482
aF-1.7134783758647179
aa(lp20
F-0.46608988063190293
aF-2.499918897030302
aF-1.3273069011290786
aF-1.2336003416292995
aa(lp21
F-1.0423101837401783
aF-2.479716358019071
aF-2.1231670609983047
aF-0.20248762269547124
aa(lp22
F-0.040818151005544034
aF-0.39621252230427606
aF-0.5191912212845868
aF-0.16162444073322318
aa(lp23
F-0.14637085970809843
aF-0.10482089040207228
aF-0.19377094629881172
aF0.31650502311983597
aa(lp24
F0.048111079639839266
aF0.49287965148575924
aF-0.08886807149673047
aF0.039527665681787436
aa(lp25
F0.0019737363296743232
aF0.381883757348309
aF0.12157393251860658
aF-0.08344459038737435
aa(lp26
F-1.262007811494477
aF-0.1986689097973896
aF0.19493050246568625
aF-1.1677318327117836
aa(lp27
F-0.4166450416844397
aF-1.5454230798469781
aF-0.564815769695403
aF-2.7573722743720874
aa(lp28
F-0.84128617267333
aF-2.406977725881622
aF-1.2366602921003287
aF-3.353207623865902
aa(lp29
F-1.532178403484163
aF-3.75291204305307
aF-2.68657460492869
aF-3.9363216778479013
aa(lp30
F-1.6909411784363086
aF-4.928397657850537
aF-3.60037299206701
aF-4.10012676960332
aa(lp31
F-1.355173370445398
aF-4.716556104266332
aF-2.63940294923543
aF-2.1763501834548826
aa(lp32
F-1.2464875827991868
aF-4.119239460331819
aF-3.290659578493585
aF-1.8912694743226588
aa(lp33
F-1.1769893078631515
aF-2.363606662335685
aF-3.352497572537085
aF-0.7039814047423893
aa(lp34
F-0.5542877169564158
aF-0.5022927528285747
aF-1.5437371595727614
aF0.049145824877484603
aa(lp35
F-0.5835947976139587
aF-0.07310250882381492
aF-0.7570825533271336
aF0.2945002394812263
aa(lp36
F0.10983747600761909
aF0.5495879866596718
aF-0.0024441826795254147
aF0.12070675124007574
aa(lp37
F-0.1619668055799939
aF-0.026419919123466418
aF0.9576253963565018
aF-0.3939435148942585
aa(lp38
F-0.7453608987283873
aF-0.6846073988563366
aF-0.1421194485061718
aF-1.5407270332829608
aa(lp39
F-1.2806976108187094
aF-2.6789059309915038
aF-0.026709620161743233
aF-2.2205433481034866
aa(lp40
F-2.210037427875473
aF-4.133116302451782
aF-2.400566872913671
aF-3.812977868277394
aa(lp41
F-2.426677728300606
aF-5.796256531016583
aF-3.331027280494543
aF-3.8558003545441886
aa(lp42
F-2.502259031212175
aF-5.984028281672197
aF-4.069407009677725
aF-5.383246672595081
aa(lp43
F-4.149006687686921
aF-5.369927540748496
aF-4.387320975009915
aF-3.6890381640603
aa(lp44
F-4.536093003079453
aF-3.957230559562697
aF-5.502419610466653
aF-1.92221970593057
aa(lp45
F-3.4094026806330184
aF-2.3825400935837697
aF-5.180362389147318
aF-0.44736713075596346
aa(lp46
F-0.6966573262815446
aF-0.05024249971509119
aF-2.2964474551662906
aF-0.8779767835258931
aa(lp47
F0.04190089340852005
aF-0.14321377334687854
aF-0.3937156364999464
aF-0.20397453455462616
aa(lp48
F0.11648586090640514
aF0.6114460496543654
aF0.03833562897509463
aF0.04776329318536654
aa(lp49
F0.0
aF1.9765282474815629
aF0.029587418996355915
aF0.023682967213774272
aa(lp50
F-0.4232592305894075
aF-0.3490421920518827
aF0.3390715564389294
aF-1.500504926893164
aa(lp51
F-1.7269589579113989
aF-1.2180850483095411
aF-1.5637345928957198
aF-6.02204042382396
aa(lp52
F-4.143163093701416
aF-3.4441332772652125
aF-2.3421342300050823
aF-4.897560018992918
aa(lp53
F-6.401115564870276
aF-4.660426378075223
aF-4.798832331775421
aF-4.824402344147225
aa(lp54
F-4.606970484540294
aF-5.111460793334048
aF-5.35496265347069
aF-4.892829172293816
aa(lp55
F-4.858424083415368
aF-4.277644492705429
aF-4.898294856316718
aF-4.832659061673288
aa(lp56
F-4.0398101613744
aF-4.228733589872572
aF-4.816836072669068
aF-2.213878306877125
aa(lp57
F-2.33680263410363
aF-1.643835354985582
aF-4.886464805306819
aF-0.26673554788484094
aa(lp58
F-0.6779461215713117
aF-0.27729184303095705
aF-3.1293103502615067
aF0.25386191840542627
aa(lp59
F-0.3738110145574499
aF-0.5771906348673447
aF-0.7112701098967829
aF0.5322375877390103
aa(lp60
F0.21498757700106186
aF0.7639508272325725
aF0.07380419791042293
aF0.179409958912701
aa(lp61
F0.16012393071351688
aF2.724828797722295
aF0.17965667314078212
aF-0.03753822095642216
aa(lp62
F-0.7705127168812584
aF-0.04059391560195994
aF0.49761980169643383
aF-2.0893359767781514
aa(lp63
F-1.0804166411952763
aF-1.7983495439019106
aF-0.5689696117374463
aF-4.71230482533718
aa(lp64
F-3.5576536212890435
aF-2.689329509820819
aF-3.749938731661153
aF-3.971595241955927
aa(lp65
F-4.73894599480787
aF-4.6275666674369305
aF-2.4524992157622743
aF-3.2468599939716336
aa(lp66
F-3.7190517231008045
aF-3.00924648192054
aF-2.716021085845715
aF-2.925909871123284
aa(lp67
F-4.163237928620511
aF-4.148766169841139
aF-3.7296865312615117
aF-6.198776234669634
aa(lp68
F-2.583091248282147
aF-2.174242872024453
aF-5.270259757665952
aF-1.6680046420597163
aa(lp69
F-1.0012820776755145
aF-1.5573549516004017
aF-3.9856968078813875
aF-0.00043337093784998754
aa(lp70
F-0.3390163898394284
aF0.3395807951772047
aF-1.7842063791092757
aF-0.13565231114769571
aa(lp71
F-0.09622701296323072
aF0.6784088936795064
aF-0.5814168522785068
aF0.05543298393299688
aa(lp72
F0.09267285157168201
aF0.9716409067145667
aF0.20410807935417147
aF0.3873746093503647
aa(lp73
F0.3963298104745434
aF1.3317061488987227
aF3.063581174603265
aF0.21103759048180107
aa(lp74
F0.15905452806660514
aF2.973013155600876
aF0.959700022103645
aF-1.5525244208935405
aa(lp75
F-1.2732911349375133
aF-1.6333216199880902
aF-0.3576327961043366
aF-2.335363120267839
aa(lp76
F-2.522278405120014
aF-0.9805171018078269
aF-0.9753919123763984
aF-2.49520649179214
aa(lp77
F-4.276940328888493
aF0.12406193873310617
aF-2.7281743725062455
aF-5.455238224195221
aa(lp78
F-2.567205905620439
aF-1.7182715391382424
aF-2.3589770177366676
aF-2.8045756978577896
aa(lp79
F-3.710774861040539
aF-1.3022794459975109
aF-3.0110450805964426
aF-3.5160058676035746
aa(lp80
F-4.443433833694652
aF-3.597769454494687
aF-4.278461618947067
aF-2.084448230741239
aa(lp81
F-3.665979606334256
aF-3.081621614543998
aF-2.839879575584342
aF-0.23382611036906972
aa(lp82
F-0.22156012326594113
aF-0.029440279635553596
aF-1.5942391356946786
aF0.4620704324753042
aa(lp83
F-0.022333679647676546
aF1.035804430604181
aF-0.20831426804054612
aF0.12220996545980857
aa(lp84
F0.3963271074617805
aF1.100598720128712
aF0.5445051418481451
aF0.3401049022937975
aa(lp85
F1.1936832040045422
aF6.248193472974358
aF0.4619401349616346
aF0.31788366880773145
aa(lp86
F0.2311144801418394
aF3.4791930221012857
aF0.5288392684689812
aF-0.7320390883255444
aa(lp87
F-3.2645942708077715
aF-0.6716006818715508
aF1.8522572964166797
aF-2.527252005854447
aa(lp88
F-2.441810367588142
aF1.9463573753861838
aF-1.7967614459202939
aF-2.3593288682730016
aa(lp89
F-4.360803265108097
aF0.012070508959551862
aF-1.6854837225168708
aF-2.278693466393769
aa(lp90
F-1.8493487684866172
aF-0.20917856535445523
aF-1.8988186986071427
aF-0.8528666508727634
aa(lp91
F-3.459834501558135
aF-0.6593054795334874
aF-1.749382973881541
aF-0.3523619735491469
aa(lp92
F-3.1754745879216557
aF-2.9910231068924444
aF-1.1322829713773022
aF-0.504195587276432
aa(lp93
F-1.4707770759367178
aF-0.282978779664593
aF-0.9494879253345521
aF0.5096320978863204
aa(lp94
F-0.6630203156994402
aF1.302186336898312
aF-0.36761134348778673
aF0.27537876048334603
aa(lp95
F0.31398594234162336
aF1.2400255144918941
aF0.4029099903766599
aF0.29152652411326774
aa(lp96
F0.4202041921359722
aF0.5355349482236231
aF1.151892737136415
aF0.4338974736610402
aa(lp97
F0.0
aF7.060377322840462
aF1.6522346296195873
aF0.0
aa(lp98
F1.2634571586259717
aF6.511819614027503
aF2.1751370906405265
aF0.0
aa(lp99
F-0.37019093378843404
aF-0.43723072946464664
aF3.822520461693242
aF-2.4840310496166698
aa(lp100
F0.720520857010855
aF2.879654628604154
aF0.6664511509454667
aF-0.5776028796203849
aa(lp101
F-2.5629934611064846
aF0.4370458248255831
aF0.3024373613620809
aF-2.661551709861297
aa(lp102
F-3.4444023994552406
aF1.1266961529606845
aF-1.2720015044957793
aF-1.7541219438832931
aa(lp103
F-1.3836156257573407
aF1.2835855925171868
aF-1.841712795446404
aF-1.048270463262183
aa(lp104
F-3.743949219231181
aF0.23926308654132933
aF-1.4940818486721048
aF0.049290390885720306
aa(lp105
F-0.47605312517631054
aF1.0477175134358734
aF-0.7968506431081477
aF0.35389643739425486
aa(lp106
F0.1317493115327243
aF1.9481832672528665
aF0.6086862619619624
aF0.7262072917585407
aa(lp107
F0.8309634168021386
aF0.5052705981941176
aF1.54969933211009
aF0.47560899126342215
aa(lp108
F0.5451599533814723
aF0.2241220686109872
aF1.4567046969084299
aF0.35117659744036084
aa(lp109
F2.9788804432158713
aF8.86423343085873
aF0.0
aF4.186833345143466
aa(lp110
F5.392773118623503
aF7.624374691248671
aF3.3675047676181675
aF4.8154166780221175
aa(lp111
F2.5546033889071618
aF6.460867096010791
aF1.6596829259790487
aF1.7229003284394064
aa(lp112
F1.4656774316528165
aF1.5264961520240963
aF4.619893223165212
aF0.8856209679018927
aa(lp113
F-2.04414700969225
aF3.637279210089127
aF-0.09796546845327647
aF0.1327891058197162
aa(lp114
F0.5416910368104861
aF0.18288718086837277
aF2.7855823313873653
aF0.1694915504833132
aa(lp115
F-0.06891584851554922
aF0.9214082450679886
aF0.3008543881106547
aF0.03319088940914139
aa(lp116
F-0.043736071766807175
aF0.44995461939605874
aF0.24537213503525668
aF0.8211068819406085
aa(lp117
F0.34646046214585624
aF2.181997176882608
aF0.11129264252462241
aF0.2167715471953994
aa(lp118
F1.173790951157182
aF2.1381194065468105
aF0.9038916821312237
aF0.8915872214726226
aa(lp119
F0.4930800286555489
aF0.8471475076219355
aF1.8572931340093464
aF0.4082384440224667
aa(lp120
F0.22266429488314132
aF0.32087928362044993
aF1.1666188438902767
aF0.10250080267303516
aa(lp121
F7.628167886746634
aF2.735732785024342
aF8.033704799820338
aF6.389712971192035
aa(lp122
F5.338297630226438
aF8.208517339633822
aF8.820512086901545
aF5.10715725583381
aa(lp123
F2.8209911945261648
aF6.403107085263922
aF7.9099946217793855
aF4.267182526629436
aa(lp124
F3.251264797374811
aF3.830475354154676
aF6.842910147180014
aF2.4638073594444605
aa(lp125
F0.6307293461319956
aF3.03269030333897
aF5.554516734627169
aF2.8647606143847932
aa(lp126
F2.2802450249404482
aF2.889739758521073
aF4.654687368752098
aF2.2571132409698267
aa(lp127
F0.9482555100303107
aF1.5901205007387693
aF3.435157656185087
aF0.8793921305697839
aa(lp128
F1.0121418064358139
aF3.1552802063739604
aF1.0802771201220231
aF0.6436413952743983
aa(lp129
F1.5306538463300454
aF1.8788885390323817
aF2.887011741158401
aF1.0304793907166812
aa(lp130
F1.5568479250751002
aF1.1370830996057797
aF2.5292105350171443
aF0.9445200670462066
aa(lp131
F0.3182846970093552
aF0.2113510677302139
aF1.939217325237776
aF0.1561808006924474
aa(lp132
F0.07170792468860358
aF0.5585732538159411
aF0.012661703274902665
aF0.007074122064942763
aa(lp133
F0.0
aF0.0
aF0.0
aF0.0
aa(lp134
F8.113117616256309
aF8.563315821564643
aF9.964599475601103
aF7.28956816014439
aa(lp135
F6.961618943239488
aF6.948251785776381
aF8.399291262049832
aF6.192064239950794
aa(lp136
F5.372452749250844
aF6.076313170264214
aF7.2217751022543135
aF4.227348512703438
aa(lp137
F4.613007306881985
aF4.61089637605985
aF6.051366674344873
aF4.383662279934865
aa(lp138
F3.884371626001438
aF4.437064198891822
aF5.188518386653566
aF3.5333563031109225
aa(lp139
F3.148419454899016
aF3.100623823584719
aF4.369763866891689
aF2.874243397354418
aa(lp140
F2.4374328513233654
aF2.4391377128594196
aF3.764683752095924
aF2.4426978117664317
aa(lp141
F2.0905470998286035
aF2.080412084479785
aF3.238390015338522
aF1.6856974668206877
aa(lp142
F1.2558464525587005
aF0.9928390747534906
aF2.6950798594836085
aF1.1048640929006757
aa(lp143
F0.390604665912199
aF0.1853693138269048
aF2.081603033308516
aF0.33145068835469316
aa(lp144
F0.056684555429731234
aF0.18471540804280884
aF1.1070686340709635
aF0.0444187669636574
aa.