(lp0
(lp1
F0.0041893862631391734
aF0.0
aF0.0
aF0.0
aa(lp2
F-0.009400549897249175
aF0.026330843056121576
aF0.00409450023454343
aF0.0
aa(lp3
F-0.14742800635964143
aF-0.3448547462260722
aF0.006925678568931235
aF-0.00416182444922445
aa(lp4
F-0.269470072754422
aF-0.051552301084708
aF-0.030356277962831194
aF-0.16809457574744863
aa(lp5
F-1.6485075586631397
aF-1.8702677203175675
aF-1.9390426180735532
aF-1.261177935531615
aa(lp6
F-1.8213092723702387
aF-2.9340860564290168
aF-1.693814454177232
aF-0.886929046119711
aa(lp7
F-1.3392011611802688
aF-2.710084226600964
aF-1.6633520184541735
aF-0.5695637496577465
aa(lp8
F-1.7577717481262158
aF-1.8157267753515687
aF-2.119336581450129
aF0.11371281529528594
aa(lp9
F-0.3828890964809779
aF-0.39917301701208124
aF-0.4221163608213562
aF0.18906513091731006
aa(lp10
F-0.4027561464843903
aF-0.40321107005229584
aF-0.10389195994667895
aF0.20701485330175023
aa(lp11
F-0.13153431541587216
aF0.028196250997652366
aF-0.08456545388736772
aF0.6721361259235001
aa(lp12
F0.10440747797091084
aF0.7887275214504571
aF0.12905283707217893
aF0.18371816377139377
aa(lp13
F-0.09197103170587323
aF0.022253307367855323
aF-0.033282473865847456
aF0.0
aa(lp14
F-0.025120358336538064
aF-0.08218523359051201
aF0.0
aF-0.7663438805023829
aa(lp15
F-0.29037433022875525
aF-0.36057422322984717
aF-0.4269254576137542
aF-0.2259433047657341
aa(lp16
F-1.2335555506110618
aF-3.5702721442513776
aF-0.1933814719512836
aF-1.3381439129013137
aa(lp17
F-2.8250146801916753
aF-3.711735241126446
aF-1.5291886149422544
aF-4.453467428759454
aa(lp18
F-1.2877178209963405
aF-5.4787446863103755
aF-3.392847432322857
aF-2.577457455232208
aa(lp19
F-1.8140961541641403
aF-3.1263796794115564
aF-3.5037883951821693
aF-0.9515111624764594
aa(lp20
F-0.542947069292112
aF-2.347854254506027
aF-2.426767130884298
aF-2.1176615595788286
aa(lp21
F-1.2207054538018158
aF-0.8752791077327525
aF-1.4511878145583852
aF0.46594679545537454
aa(lp22
F0.04137332248031898
aF-0.06577198539241587
aF-0.569177461176505
aF0.42962865734256306
aa(lp23
F0.06341655379107015
aF-0.06579135803426378
aF-0.18609414580320205
aF0.6898785669806841
aa(lp24
F0.09655686257747592
aF0.8385560468433123
aF0.2650597657604807
aF0.1856593217759019
aa(lp25
F0.04845761976353074
aF-0.1386073197528844
aF0.19339683675935887
aF0.0
aa(lp26
F-0.04289560200371867
aF-0.2630917706785797
aF0.0951896106485547
aF-0.00254828827423748
aa(lp27
F-0.16032307045749017
aF-1.7029864011164053
aF0.3016614081888371
aF-2.507180543727983
aa(lp28
F-3.046691828207587
aF-3.813262558428603
aF-1.7225116681488277
aF-4.1597966021041985
aa(lp29
F-2.6242871323458234
aF-6.72909153322417
aF-3.988258924641135
aF-4.510014722850926
aa(lp30
F-2.3674354487116203
aF-6.664106035946934
aF-4.197908188034166
aF-4.382094489773421
aa(lp31
F-1.4195272829350394
aF-7.084856539518364
aF-5.8752387219525515
aF-3.406187567813518
aa(lp32
F-3.8442984362173314
aF-3.098401458841539
aF-4.41636600847968
aF-0.606697941356832
aa(lp33
F-0.009357204087708192
aF-1.3000347500718867
aF-3.4486643196128868
aF-0.7759425369641875
aa(lp34
F-0.0039043844731147
aF-0.11623935943155973
aF-1.1026191556842262
aF0.6756793524901273
aa(lp35
F0.04136197287926842
aF0.12995343166954545
aF-0.08936478710610095
aF0.8132436883053137
aa(lp36
F0.26605217372749695
aF1.0045175672940252
aF0.3204542137972683
aF0.49159976496639546
aa(lp37
F-0.06237329388879795
aF0.9842623369620148
aF0.0
aF0.0
aa(lp38
F-0.23113315425337047
aF-0.5354786026573848
aF1.006390382491547
aF-1.0460747326009736
aa(lp39
F-1.0481068061120973
aF-2.1683504312448743
aF-0.4477135128454878
aF-2.728042286465963
aa(lp40
F-3.6829079258490016
aF-2.604966796993263
aF-1.7940350682067001
aF-7.005931389588782
aa(lp41
F-4.14988323183412
aF-6.838594125547571
aF-5.621714968804464
aF-4.913393940482771
aa(lp42
F-4.335066152510381
aF-6.287548431301667
aF-8.23376906855371
aF-7.264380334412558
aa(lp43
F-4.528045526607898
aF-6.423656781235523
aF-7.716292935785687
aF-3.547538763548762
aa(lp44
F-3.456704551926005
aF-5.249605313485622
aF-5.7298803715934605
aF-1.6596388215498534
aa(lp45
F-0.98372796495367
aF-2.643195095173676
aF-3.50185695762178
aF-0.00684508135604131
aa(lp46
F-0.808969223861831
aF-0.32615457825645794
aF-1.876831262538379
aF0.4050385416707912
aa(lp47
F0.02880457491737764
aF0.04550595735584715
aF-0.13861286648568852
aF0.882378318195641
aa(lp48
F0.4114530365317598
aF1.1070912386872518
aF0.24447869212263654
aF0.6311140059106649
aa(lp49
F-0.02806798224995909
aF1.8274176848383168
aF0.4601617194466508
aF0.0
aa(lp50
F-0.13413788861198375
aF-0.35740953748722015
aF1.0262428285974836
aF-0.3043786205112445
aa(lp51
F-2.0979054957042105
aF-1.359986160187077
aF-0.17262078987555496
aF-2.8905604583384634
aa(lp52
F-2.7275030099603135
aF-2.828586777329346
aF-0.9674923525646473
aF-5.829238325724566
aa(lp53
F-7.10598673170884
aF-6.117879428127423
aF-3.5369346260616634
aF-7.17128809253702
aa(lp54
F-7.874645128533939
aF-7.356681170172704
aF-6.073115552036121
aF-8.784076354296733
aa(lp55
F-7.9631206932082925
aF-7.936889118241174
aF-8.492223142643397
aF-6.5974661545180275
aa(lp56
F-4.314554027750416
aF-3.0351430971285684
aF-8.173374452662094
aF-6.6915833111636855
aa(lp57
F-1.7533140277120938
aF-1.271200737163985
aF-4.734470270826212
aF-0.155484479959821
aa(lp58
F-0.6029499697473678
aF-0.735524553034497
aF-1.9283115098248718
aF0.668239020312333
aa(lp59
F-0.11257509697456851
aF0.16806691865659182
aF-0.4697912772703379
aF0.9514548396991537
aa(lp60
F0.5204656743715625
aF1.2520284649197195
aF0.6153839839794627
aF0.6847586485620358
aa(lp61
F0.0
aF1.1755054441053774
aF0.00038210788043757134
aF1.9141627798384393
aa(lp62
F-0.506555719443707
aF0.7937103325121603
aF1.4371549662034222
aF-1.5512731167869471
aa(lp63
F-1.1632900149881777
aF-0.8729603277682353
aF0.7650571583825235
aF-0.22710645499694637
aa(lp64
F-3.856386911373551
aF-0.3088577631251006
aF-2.4579104133819683
aF-4.914964146916138
aa(lp65
F-8.936427652244916
aF-5.16353876165052
aF-2.4942383408055
aF-4.836688351444036
aa(lp66
F-8.581360941691438
aF-4.438770460726276
aF-6.396801665110602
aF-4.781697647941905
aa(lp67
F-9.510267784659478
aF-6.153090353227715
aF-7.79690827889977
aF-2.8352767830584154
aa(lp68
F-6.760822549217727
aF-3.1374617976661634
aF-7.253312545248424
aF-1.5518138958301197
aa(lp69
F-1.0378993776538237
aF-2.5273989929038976
aF-3.4425862960146607
aF-0.07637575482888659
aa(lp70
F-0.9659377546631556
aF-0.7182694200857584
aF-1.1294879442085166
aF0.6485117296597595
aa(lp71
F0.017445987734281375
aF1.1876498771767459
aF0.14574040303474023
aF0.16097939027338976
aa(lp72
F0.7050633037142798
aF1.3714991225542041
aF0.5861946687271076
aF0.7265810361525337
aa(lp73
F0.2351634836002427
aF1.7585017002941103
aF3.487948643610868
aF1.427919174008163
aa(lp74
F0.004315014927258115
aF0.6450599889218355
aF2.896776534758757
aF-0.4712900793796696
aa(lp75
F0.4191137576187589
aF-0.27621351117125026
aF1.1323444026039018
aF0.0
aa(lp76
F-1.8662249072193287
aF-1.7060338712371625
aF0.8193181009411994
aF-1.7751369982932206
aa(lp77
F-5.784696688405511
aF-0.6057408712779708
aF-2.426420376642965
aF-1.839894727018982
aa(lp78
F-11.340223423229787
aF-3.0938495585789085
aF-6.27037574250417
aF-5.940904034245979
aa(lp79
F-6.587969126545455
aF-4.17528338840573
aF-6.483576834456873
aF-3.702583661336839
aa(lp80
F-3.8735499962319397
aF-2.240889941690042
aF-2.2284454701083902
aF-0.8297326744880548
aa(lp81
F-2.0980895046210617
aF-0.8857706800625904
aF-2.4064086600675947
aF0.5186121601074358
aa(lp82
F-0.8998424131591785
aF-0.45466019640428085
aF-0.3296772108330868
aF-0.6835932889917665
aa(lp83
F0.16772715914195424
aF1.556630583408471
aF-0.26314695563227736
aF0.5050417226275743
aa(lp84
F0.8001375460213397
aF1.5018934272312214
aF0.8895702051467603
aF0.8404674128901858
aa(lp85
F0.04705240832385537
aF4.9730692943576935
aF0.8675027898065706
aF3.350606219039753
aa(lp86
F0.3543962007613478
aF0.5758836376810806
aF4.466497714072947
aF0.0
aa(lp87
F-0.870415297225828
aF0.0
aF3.208529744738878
aF-3.5209705018009068
aa(lp88
F0.0
aF3.1417890242090407
aF-2.6424077335189824
aF-2.016670309925679
aa(lp89
F-4.990079915369577
aF0.26112354134430715
aF-0.860373792503928
aF-0.7399451100778638
aa(lp90
F-7.64891617014776
aF-0.4429935780713504
aF-2.3912059958177454
aF-3.04893055914795
aa(lp91
F-6.800934977117296
aF-1.9741604789789626
aF-3.237247405405272
aF0.32714057210805914
aa(lp92
F-1.7411025139916085
aF0.2396248335982246
aF-1.9004434650060686
aF-1.5992792281519908
aa(lp93
F-3.479789456792447
aF0.09896137362012061
aF-2.120884475581879
aF1.1162079607978443
aa(lp94
F0.43069172762085633
aF1.6157781032117913
aF-0.8641645424520634
aF0.20747135550375456
aa(lp95
F0.8280932559833605
aF1.8996194483941757
aF0.7423006477442042
aF0.527814688921502
aa(lp96
F0.8393759526474254
aF1.5657116719185493
aF0.9548188838572621
aF0.8417660083881592
aa(lp97
F0.0
aF8.014899801779185
aF3.4770649382046983
aF3.9372694291601347
aa(lp98
F1.3039895381180946
aF3.272168805412549
aF5.856954924155085
aF0.0
aa(lp99
F-2.935426154077634
aF3.15349044930994
aF-0.6705664064324875
aF-2.015833022967208
aa(lp100
F-0.0428172532998919
aF3.1839096867227603
aF0.25835388586586555
aF0.178749931654672
aa(lp101
F-3.3851911144084816
aF2.0449405139655514
aF0.8391811827314678
aF-0.3804851389035184
aa(lp102
F-2.8041614888716104
aF2.883358774602459
aF-3.4048571958778253
aF-2.122246983709922
aa(lp103
F-1.8913186564068898
aF-0.39532519624585916
aF0.10759022485926595
aF0.5804639378233712
aa(lp104
F-3.438112733483066
aF1.9653005346429024
aF-0.09550224465235564
aF-0.15870919458335814
aa(lp105
F-0.9638993303991973
aF0.017717385125115153
aF1.6891026785190766
aF0.021448250578489907
aa(lp106
F0.40523661058198135
aF2.3909993924012674
aF0.9028625653380723
aF0.9889798754339603
aa(lp107
F0.8932465722721341
aF1.1554049604572796
aF2.2314937564911452
aF0.47540408355914554
aa(lp108
F0.6964608141983767
aF1.0899126020151892
aF1.9696174618101245
aF1.1226385758109412
aa(lp109
F4.25638534986448
aF9.392698045803488
aF4.7695192586351425
aF5.0265387633270855
aa(lp110
F3.5521264494224543
aF6.890316040721954
aF7.72736294636591
aF2.5436903158961073
aa(lp111
F2.1049226437757347
aF5.774886566169953
aF2.048193185879038
aF2.669200040999506
aa(lp112
F3.1923003352501844
aF2.75818292505642
aF5.003390326445474
aF2.4408965398043145
aa(lp113
F1.8902433680814033
aF2.5630177965244587
aF4.564513659503189
aF0.9690556309576472
aa(lp114
F-0.5120664436951793
aF1.3445168275449892
aF3.9129025480191917
aF1.2710623710500737
aa(lp115
F-2.0012576667856887
aF1.2496975173213292
aF3.47219868878467
aF0.5292369342751471
aa(lp116
F0.48825644591894773
aF0.760323016675805
aF2.7491584805429614
aF0.527443531642896
aa(lp117
F1.1696169463168005
aF2.9928581219727812
aF0.23027712332619954
aF0.5019480772773227
aa(lp118
F1.240265489881028
aF1.7474182805009209
aF2.639983787653765
aF0.9974924949242927
aa(lp119
F1.20032532721303
aF0.7673789090996117
aF2.3822119559921613
aF1.3220170182545898
aa(lp120
F0.6860939652326206
aF1.760530347374756
aF0.6485748043332277
aF0.7546543339599949
aa(lp121
F7.291676002998348
aF10.001956819973644
aF7.767265276688919
aF5.833403934039642
aa(lp122
F5.865670496435794
aF7.092135896655137
aF8.911683067337485
aF5.320072911047163
aa(lp123
F5.382035799706476
aF6.9147463790221595
aF8.296198375590796
aF4.984357479387863
aa(lp124
F4.525338955587332
aF4.417309285600817
aF6.772671059341677
aF2.8376895229088195
aa(lp125
F3.7322636735775827
aF3.9124678963569997
aF6.44629597435942
aF3.026384948728145
aa(lp126
F2.433703736547003
aF3.0087513587604473
aF5.453072335912363
aF2.0981803728843413
aa(lp127
F1.9332743543867044
aF2.9202619779258137
aF4.47474217513871
aF0.8422812747215369
aa(lp128
F2.150181690888378
aF3.8515163210227206
aF2.0504389829814356
aF2.1731749060446517
aa(lp129
F1.9591020465144875
aF1.9960200279491054
aF3.518621000608527
aF1.4925824883363323
aa(lp130
F1.6003396452131333
aF1.5838786240277085
aF3.090843954121417
aF1.2716821222516366
aa(lp131
F0.6460127756856414
aF1.2962840884990587
aF2.526249035469981
aF0.6660667415759743
aa(lp132
F0.6699157915208293
aF0.9489180586777687
aF2.1846820263103113
aF0.64405777251904
aa(lp133
F0.0
aF0.0
aF0.0
aF0.0
aa(lp134
F8.279258534335124
aF8.758054717335384
aF9.99835186285141
aF7.703109641819918
aa(lp135
F7.411155214630491
aF7.718780963399317
aF8.899615791702178
aF6.4596088065641135
aa(lp136
F5.851502900548097
aF6.3544189542252605
aF7.871755507595331
aF5.419259531201244
aa(lp137
F5.401235245212148
aF5.399116603151694
aF6.947063566553913
aF4.407866658886254
aa(lp138
F4.166276030548642
aF4.698584350286932
aF5.966241076463489
aF4.103459110145068
aa(lp139
F3.7681388064426415
aF3.935292019907905
aF5.095260506100559
aF3.3150388399790693
aa(lp140
F3.089145574368377
aF3.356919111147426
aF4.469089239364353
aF2.866147964876509
aa(lp141
F2.5500494021948197
aF2.672708381806622
aF3.780892992796661
aF2.3799045916826578
aa(lp142
F1.850693353688518
aF1.636863444557704
aF3.1590352775435906
aF1.6381750277204956
aa(lp143
F1.56477431887763
aF0.8851050385086083
aF2.6084702324831643
aF1.2751071360982182
aa(lp144
F0.9094654541433548
aF0.6418737366993482
aF2.146685659037979
aF1.0745798108180293
aa.