(lp0
(lp1
F0.0
aF0.0
aF0.0
aF0.0
aa(lp2
F0.0
aF0.0
aF0.0
aF0.0
aa(lp3
F0.0
aF0.0
aF0.0
aF0.0
aa(lp4
F-0.013119038196476937
aF-0.07600854439688727
aF0.0
aF0.0
aa(lp5
F-0.28306165100344355
aF-0.41963052678817037
aF-0.4786353701150109
aF-0.3116896839616909
aa(lp6
F-1.0460733845954082
aF-1.9688859914489731
aF-1.2117643737303743
aF-0.6732766290867819
aa(lp7
F-0.8657904358568663
aF-1.706275860490406
aF-1.4459211370733829
aF-0.5183099955743642
aa(lp8
F-0.6407751125052575
aF-1.0025316413811627
aF-0.8014769141583782
aF-0.17332142709231782
aa(lp9
F-0.17303028618502347
aF-0.1686000176404397
aF-0.25806371353204743
aF-0.05441291021613519
aa(lp10
F-0.17340204592239056
aF-0.15117504049814884
aF-0.2812769563718682
aF-0.11319098494738303
aa(lp11
F0.014413449182794521
aF0.00868710001856374
aF-0.14468292536535798
aF0.1982339654616684
aa(lp12
F0.02419738434135331
aF0.25102053999157076
aF0.007183131261967433
aF0.0188437329865424
aa(lp13
F0.0
aF0.0
aF0.0
aF0.0
aa(lp14
F0.0
aF0.0
aF0.0
aF3.2560587192595024e-06
aa(lp15
F-0.08716615440132734
aF-0.7503166154466133
aF0.00015753538830774383
aF0.0
aa(lp16
F0.0
aF-0.5606861833661879
aF0.0
aF-0.5686439171107265
aa(lp17
F-0.5872998118212029
aF-3.0472022152603433
aF-0.36342980207603287
aF-1.3058155987940394
aa(lp18
F-3.6925292296975654
aF-2.2586136479608534
aF-0.8960711600784429
aF-1.8375341046072582
aa(lp19
F-1.0339099412851769
aF-1.5060080280946397
aF-1.3420030211301723
aF-1.4576337295944999
aa(lp20
F-0.7970138703729175
aF-1.9507763455214062
aF-1.2606644773192421
aF-0.7055992195378598
aa(lp21
F-0.5641673345720465
aF-0.9805512833929585
aF-1.7085679497302908
aF-0.12147458621112041
aa(lp22
F-0.20174801751530963
aF-0.24848066589183262
aF-1.7392966762997535
aF0.11560992150504472
aa(lp23
F-0.10911796345660617
aF-0.0634409150356322
aF-0.17145046392074967
aF0.17126623435966873
aa(lp24
F-0.0005281422274160535
aF0.3400583681360708
aF-0.019587999534652137
aF0.005890091715679131
aa(lp25
F0.0
aF0.0
aF0.0
aF0.0
aa(lp26
F0.0
aF0.04550467291142887
aF0.0
aF0.0
aa(lp27
F-0.2315442626465511
aF-0.3473949548126335
aF-0.15416943989309673
aF-0.6022311897168255
aa(lp28
F-2.118540336093422
aF-0.8057837414557255
aF-0.43187210022856326
aF-2.3564938625212166
aa(lp29
F-2.638676841055919
aF-3.20803654612397
aF-1.923247993372038
aF-2.0277603631391186
aa(lp30
F-1.3079567467727913
aF-3.26649118392828
aF-3.6837699962406996
aF-3.7404886118157443
aa(lp31
F-2.730923929907247
aF-4.634119887796943
aF-2.681062549828237
aF-2.6057830531482193
aa(lp32
F-1.4165079407489234
aF-4.700344074005203
aF-3.3737802801104984
aF-1.2857254450050912
aa(lp33
F-0.7084764074532028
aF-2.9780084129583426
aF-3.3411958014522782
aF-0.1892944889348917
aa(lp34
F-0.42572267094864985
aF-0.32296141793097444
aF-0.9044253476269517
aF0.08297035816924209
aa(lp35
F-0.09665493267974858
aF-0.20473007633216764
aF-0.47454085606010976
aF0.29990633375575493
aa(lp36
F0.059252936116097055
aF0.3735556847492092
aF0.0005473954629437311
aF0.1864586588228943
aa(lp37
F0.012398287865076678
aF0.0
aF0.011657513598654723
aF0.13160734934377327
aa(lp38
F-0.20691973656995225
aF0.09594631148289025
aF-0.5855732694362895
aF-0.9830800255606078
aa(lp39
F-0.6745883939391462
aF-0.9614187177740747
aF-0.12966556732541637
aF-1.6836021889884702
aa(lp40
F-2.815067080732287
aF-4.2166640465474945
aF-2.107085467710509
aF-4.057004688840131
aa(lp41
F-4.2469727558317185
aF-5.757633039482018
aF-3.046232488610782
aF-4.837245192253061
aa(lp42
F-2.9601377634434147
aF-5.8470595251004305
aF-3.7246283180028525
aF-3.7520333468000255
aa(lp43
F-3.8000997258611218
aF-5.227877814253042
aF-4.5613239540515105
aF-4.467830552787945
aa(lp44
F-2.4731028556266565
aF-5.78719326021245
aF-4.910786706220035
aF-1.973166382261939
aa(lp45
F-1.2316801615433999
aF-1.1516188552854425
aF-1.6803744116692574
aF-0.2123691958258323
aa(lp46
F-0.382841072149349
aF-0.33133390642980176
aF-1.4832615351627354
aF0.18509977753661194
aa(lp47
F-0.08338465151310367
aF0.36322941999012215
aF-0.3935652245270912
aF0.03919261507483739
aa(lp48
F0.15039927397897881
aF0.48934944145546017
aF0.10405090625562959
aF0.0570095770651136
aa(lp49
F0.07103382283628368
aF0.2508632731590848
aF0.0
aF0.0
aa(lp50
F-0.08795064359845012
aF0.30812928441103493
aF0.06287667091781711
aF-1.4464997188532336
aa(lp51
F-1.5347881700607524
aF-2.178052970389812
aF-1.9591295849967083
aF-2.173509493946754
aa(lp52
F-1.9667456079927879
aF-2.543864815672672
aF-1.1844412421789294
aF-2.7392388747929286
aa(lp53
F-5.254595367172288
aF-5.131543444152096
aF-3.8551349701973487
aF-5.934522581412044
aa(lp54
F-5.294732269615388
aF-4.333483850005984
aF-4.992731448262493
aF-4.637525973268274
aa(lp55
F-4.891351145213048
aF-4.389041279259346
aF-4.778920336002901
aF-4.4263564908105115
aa(lp56
F-4.664979513523106
aF-3.830745914963679
aF-5.499180514972179
aF-2.4093081960164864
aa(lp57
F-1.433948067692147
aF-1.2413575901963585
aF-5.800351263290587
aF-0.3495227890105892
aa(lp58
F-1.6292977672194013
aF0.09281070373295786
aF-1.2133509504923214
aF-0.21529840501450323
aa(lp59
F0.020407466007480203
aF-0.08307904198020069
aF-0.23774337886638705
aF0.4451481909594125
aa(lp60
F0.18090488828718088
aF0.26765443648903875
aF0.21539277538156767
aF0.5021192663882643
aa(lp61
F0.17469383146992767
aF0.0
aF0.0
aF0.0
aa(lp62
F0.1425642324000995
aF0.0
aF-0.04510533634179696
aF-0.6015533576675112
aa(lp63
F-1.4431500387345781
aF-1.9969134809287
aF0.10869095230841597
aF-2.5531406350618413
aa(lp64
F-3.2066526524396406
aF-3.537851237655065
aF-2.3730905269124376
aF-4.486394682050293
aa(lp65
F-5.661084745943004
aF-3.0698409175150743
aF-2.7300540829988105
aF-4.451882213434576
aa(lp66
F-6.442717976955134
aF-3.780801085950479
aF-5.3010899557388
aF-4.0509899310852715
aa(lp67
F-3.371768023970956
aF-3.052082277650974
aF-4.66607941323905
aF-2.952665557826434
aa(lp68
F-3.9957869696894295
aF-5.141129383296556
aF-5.473432290999406
aF-1.8159763769696466
aa(lp69
F-1.5493829620120738
aF-1.201452299232305
aF-4.2292070072023655
aF0.014735720321718118
aa(lp70
F-0.586594046236371
aF0.29962718684215117
aF-0.8282993304123552
aF-1.230733096579919
aa(lp71
F0.08828540880023988
aF0.3824338911841738
aF-0.1509189337732902
aF0.06230858817339883
aa(lp72
F0.24946277060961736
aF0.6904039946604759
aF0.19119738689963842
aF0.284649426160641
aa(lp73
F0.11941174211895873
aF0.29590293731738415
aF0.09578571913904604
aF1.581516917742586
aa(lp74
F-0.10126234945456047
aF1.8319488933617192
aF0.0
aF-0.40063832495169294
aa(lp75
F-0.718121791986692
aF-0.0020697257663178648
aF-0.1102835559388823
aF-1.521887408815855
aa(lp76
F-1.9967389038415757
aF-1.7269902648249456
aF-0.7440490512240426
aF-3.0020996741237513
aa(lp77
F-3.926209701866926
aF-2.5396815051552384
aF-3.2875214127984496
aF-4.236042603506135
aa(lp78
F-3.7779744818730885
aF-3.372169932966983
aF-2.4145293334762816
aF-2.7625357604957554
aa(lp79
F-3.993790629615851
aF-2.5336115129949737
aF-3.4572466661777166
aF-2.3410305227513675
aa(lp80
F-3.0772764787329763
aF-0.4240232197244555
aF-2.8672495430096427
aF-1.2801247229361012
aa(lp81
F-1.0191615769378382
aF-0.8029682764190637
aF-2.3413376323628454
aF-0.5429772867446659
aa(lp82
F-1.0021468320630775
aF0.6527920264758353
aF-1.78707717454413
aF0.050231444584031754
aa(lp83
F0.02978302121854435
aF0.031594769678262975
aF-0.06725996254715112
aF0.5958542996443638
aa(lp84
F0.23711656930324787
aF0.34821320237329173
aF0.45393718589501014
aF0.8160918364483467
aa(lp85
F0.02928145465781932
aF1.6255744619575048
aF0.0
aF0.0
aa(lp86
F-0.20880822252257247
aF4.136530067042666
aF0.0
aF0.18273434941039485
aa(lp87
F-0.6407655824832876
aF-0.5801931851154944
aF2.552286192732084
aF-0.4183779731630241
aa(lp88
F-3.6294342788353884
aF2.7684805715190537
aF-0.961293012436189
aF0.0
aa(lp89
F-1.8880885150007145
aF0.5393949162446738
aF-3.260172531351914
aF-1.6532413878289813
aa(lp90
F-3.1806206049464976
aF-1.9960736367773473
aF-2.1682421973788366
aF-1.997242430917317
aa(lp91
F-4.28135241922027
aF-2.536095313184178
aF-2.589837975466895
aF-1.1822285098322647
aa(lp92
F-2.057873688519364
aF0.5499953955684872
aF-3.146436036537599
aF-0.42374555439544725
aa(lp93
F-1.037306705502722
aF0.5455781022270623
aF-0.49791116765637494
aF0.06668818901832156
aa(lp94
F-0.05667966699001309
aF1.047023846634294
aF-0.09571306891487967
aF0.074416048646493
aa(lp95
F0.04900803406662262
aF0.1641325917033215
aF0.864147559315703
aF0.27246086866994873
aa(lp96
F0.43876412479200877
aF1.0168941903551505
aF0.6026471342218918
aF0.548347105401353
aa(lp97
F0.0
aF3.8416616373798216
aF2.622196643668764
aF0.9721560398481675
aa(lp98
F0.0
aF5.150215219249204
aF3.7701437583440547
aF1.0818265997305703
aa(lp99
F-0.18244424799182063
aF4.41578200613378
aF0.8307653160951581
aF1.1566168349338952
aa(lp100
F-2.31084503987063
aF-0.6639743765700138
aF-1.05
aF0.9164786417620006
aa(lp101
F-2.176632549200921
aF2.141155488189464
aF-0.6304219151407424
aF0.0
aa(lp102
F-1.0491721163539232
aF0.36408930132036343
aF-2.847667697980922
aF-2.58242085015636
aa(lp103
F-0.9496750395996916
aF-1.8515626002090053
aF-1.1673467074815713
aF-0.7960974293911326
aa(lp104
F-0.8509044454764392
aF1.4952431728561195
aF-1.0843722431736724
aF-0.5214569954269164
aa(lp105
F-0.35722243135863657
aF0.39302422740253684
aF0.9532432483241656
aF0.16929578617919563
aa(lp106
F0.47515839529417464
aF1.6484861504694768
aF0.6000757266799865
aF0.04907008981306056
aa(lp107
F0.4058067258265532
aF1.6616363750651053
aF0.5803136437479779
aF0.41458526464386225
aa(lp108
F0.4660655982537245
aF0.7390768913113938
aF1.227080190489466
aF0.4182358868828596
aa(lp109
F0.02343814618598048
aF0.0
aF5.051272834256009
aF5.707142017000999
aa(lp110
F0.0
aF6.603670585226373
aF3.1384263269721755
aF3.362709713473594
aa(lp111
F0.2676792497209812
aF4.374022452537657
aF0.45489122212339095
aF2.66899253181083
aa(lp112
F-0.3475486358687241
aF5.173073525415121
aF1.5952753580582788
aF2.581105955323275
aa(lp113
F-0.26100453017973774
aF2.100247541871564
aF4.190538629655506
aF0.5764457310772355
aa(lp114
F-0.03331511476673654
aF1.5623716079581
aF0.027699272028617272
aF0.3462274802969839
aa(lp115
F-0.15167555989632914
aF1.8957738500257673
aF0.8042466645450932
aF0.20511856599542402
aa(lp116
F-0.3864595686804907
aF2.308192660986339
aF0.2608334674660442
aF0.7126006027277485
aa(lp117
F0.09561329811751713
aF2.2652888588731197
aF0.008612362291187977
aF0.16547831797032508
aa(lp118
F0.4257702964946425
aF1.2402104609990565
aF1.9790141037590292
aF0.626054975783753
aa(lp119
F0.5403571935166286
aF1.8051650436558937
aF0.8332592339440216
aF0.48333695240365454
aa(lp120
F0.3560327311414535
aF0.6692220961998941
aF1.6006909048214444
aF0.6899690569116935
aa(lp121
F3.6232277380014937
aF9.68026728564075
aF8.99173264112088
aF7.582779539373849
aa(lp122
F3.731144057230831
aF8.285686202908739
aF6.9003900012073665
aF4.738668127499682
aa(lp123
F4.1296735317598205
aF6.731916051198482
aF4.810752443252028
aF4.238692523166299
aa(lp124
F4.308959420443144
aF6.107328460502482
aF4.717051357631109
aF3.8099914552189356
aa(lp125
F3.046565018647916
aF3.3504740204492687
aF5.249759679070765
aF2.00011600744962
aa(lp126
F0.3731445400790099
aF1.3093083338818325
aF4.479725527591558
aF1.1866981440081035
aa(lp127
F1.0178494897483616
aF1.2016611268379134
aF1.861381354376103
aF2.820846719203041
aa(lp128
F1.1738386964700462
aF3.232543190162232
aF1.61780204387176
aF1.177784850651226
aa(lp129
F1.030325990174774
aF1.697030953758185
aF2.8526961935486166
aF1.051441628563004
aa(lp130
F1.2542534087349329
aF1.204686513529399
aF2.473897580946251
aF1.238130270269705
aa(lp131
F0.5942774662281084
aF1.1026891361375166
aF2.06046598239796
aF0.6009996377655469
aa(lp132
F0.15253232794903135
aF0.38900050563408894
aF1.4349790948972234
aF0.26508913439893633
aa(lp133
F0.0
aF0.0
aF0.0
aF0.0
aa(lp134
F7.650981382289476
aF8.729380642947595
aF9.886083189746289
aF7.308209051600057
aa(lp135
F6.957049530097216
aF7.074007792988616
aF8.710800438553811
aF6.009962064051813
aa(lp136
F5.569473085105064
aF6.283693194872324
aF7.573329881228135
aF5.216210982602307
aa(lp137
F4.526206953980466
aF5.2683318281019
aF6.341331054285371
aF4.652724936100186
aa(lp138
F3.7693092642960386
aF4.241939171351755
aF5.258397701554891
aF3.2756371752130424
aa(lp139
F2.771684828374147
aF3.3144312350161496
aF4.547944669059658
aF2.8544962600138533
aa(lp140
F2.442912274713043
aF3.0633473288328394
aF3.8522362190162087
aF2.4327042405922366
aa(lp141
F2.217031460624526
aF1.9520802060705758
aF3.461131906218766
aF2.1988884802004955
aa(lp142
F1.6458159958365772
aF1.5833601689865442
aF3.0428214249820305
aF0.9507304099171304
aa(lp143
F0.762653354507933
aF0.7602465674383168
aF2.442108458111133
aF0.5292384350676038
aa(lp144
F0.39607496826384225
aF0.23181632257806253
aF1.4714444444513282
aF0.33323466986120887
aa.