(lp0
(lp1
F0.0
aF-0.031605531227031476
aF0.0
aF-0.00971326394090304
aa(lp2
F-0.01776753637991585
aF-0.0025217575593038137
aF0.011752327561708497
aF0.0
aa(lp3
F-0.16639434648330664
aF-0.25410715018486474
aF0.020928252263685113
aF-0.06621920463117939
aa(lp4
F-0.16159346271783454
aF-0.16619257231659904
aF-0.12771807533694599
aF-0.2985925036483604
aa(lp5
F-0.6388788091566403
aF-0.6864120304271598
aF-0.21426802922479193
aF-0.5358925683260637
aa(lp6
F-1.1050361800233477
aF-2.029789531153934
aF-0.5557561954731504
aF-1.0968249913202939
aa(lp7
F-1.1670313508011014
aF-1.6031955460351073
aF-1.234716241521717
aF-0.4450595924824906
aa(lp8
F-0.7484857557597644
aF-1.6278939272885509
aF-0.7194129543803671
aF-0.24427663727056745
aa(lp9
F-0.08759198294664865
aF-0.3563762958427031
aF-0.8143984738352039
aF-0.07819212366218309
aa(lp10
F-0.19732051228598713
aF-0.4696631614790447
aF-0.40779618221945446
aF0.006471364912107561
aa(lp11
F0.1171201908580503
aF-0.08533193185282767
aF-0.08048421701045212
aF0.008016073978192588
aa(lp12
F0.02469262031342187
aF0.29976001926755974
aF-0.044140040634035954
aF-0.009200320566473224
aa(lp13
F-0.0069668116683738734
aF0.0
aF0.2437965461673831
aF-0.08710457350772763
aa(lp14
F-0.11133106127453456
aF-0.11487528514838383
aF0.15558529048548234
aF-0.22120666838730357
aa(lp15
F-0.07856369128024468
aF-0.6695443536142025
aF-0.16411528772200756
aF-0.508403308310529
aa(lp16
F-0.2622221721662529
aF-0.8821327024249621
aF-0.4295375449607217
aF-0.8825720048516078
aa(lp17
F-0.7557221175455238
aF-2.115637877398742
aF-1.5698003457865548
aF-1.6919527592284132
aa(lp18
F-2.0553618572368872
aF-2.7830360714959697
aF-2.049258011873024
aF-1.3746918278345093
aa(lp19
F-1.70603049479075
aF-2.385099082230975
aF-1.835405719724864
aF-1.1711630822330086
aa(lp20
F-0.9781525220976617
aF-2.0032074440592122
aF-1.173666845877546
aF-0.2534176039072931
aa(lp21
F-0.6768680505629381
aF-1.570087321926179
aF-1.0305167704266511
aF-0.06219593201867061
aa(lp22
F-0.06013865519940625
aF-0.19817772246619494
aF-0.49990175882153076
aF0.08950284098063506
aa(lp23
F-0.015986033953204346
aF-0.014550749269705322
aF-0.10364713027597815
aF0.29832731772959076
aa(lp24
F0.004996417572091173
aF0.3459196639637922
aF0.023981715229136388
aF0.03733609735637071
aa(lp25
F0.025402961133716227
aF1.0756951488882498
aF0.021132534182206446
aF-0.10052780804994171
aa(lp26
F-0.06935778960308848
aF-0.09013178742533086
aF0.24752112763738737
aF-0.5331652155643887
aa(lp27
F-1.3004454704961033
aF-0.5506843978821712
aF-0.195657693594688
aF-1.4354170617234236
aa(lp28
F-0.6133170953944431
aF-2.940414063159845
aF-1.152976002901788
aF-2.0556627555073894
aa(lp29
F-1.742635550128266
aF-3.770942464341395
aF-2.658239424549371
aF-3.411927986050868
aa(lp30
F-1.8516211643590232
aF-4.650099234294952
aF-2.68673684903618
aF-2.6647455579434167
aa(lp31
F-1.4134718175870085
aF-4.044153962963091
aF-4.800751672033434
aF-2.276373127735402
aa(lp32
F-1.5817865291693243
aF-3.7323399478294714
aF-2.4095500833143073
aF-2.3432740166372144
aa(lp33
F-0.4753540128843686
aF-2.1923033233104223
aF-1.8751620542635943
aF-0.12576478667697016
aa(lp34
F-0.47747589276672997
aF0.0010078706970318091
aF-1.2727974506693343
aF-0.23586693737273756
aa(lp35
F-0.11170656264287888
aF-0.08178734205357699
aF-0.3109455747022672
aF0.23706834304475388
aa(lp36
F0.087991887048646
aF0.5163878181283613
aF-0.04344658347825057
aF0.1099844841272987
aa(lp37
F-0.050418972303574935
aF-0.015808703098992665
aF1.271903680113437
aF0.1396053395539391
aa(lp38
F-0.4657134564969046
aF-0.8120422617006984
aF0.8238275994753774
aF-1.1420148363261977
aa(lp39
F-0.9584640160687062
aF-1.043169876733617
aF0.30720063770118344
aF-3.2348005877508
aa(lp40
F-2.82329061494023
aF-3.561626312729662
aF-1.2386415140699123
aF-5.03847637058185
aa(lp41
F-2.6120379677696124
aF-6.707398048594435
aF-5.101167659791368
aF-4.225221632251142
aa(lp42
F-3.121548900651774
aF-6.487955718359642
aF-4.27755391922031
aF-4.036985525840937
aa(lp43
F-3.2055276633598675
aF-5.773917557408508
aF-4.560283179957847
aF-3.07823017944377
aa(lp44
F-3.1215775053486117
aF-5.224057307101461
aF-3.518408227201955
aF-1.7152250358982437
aa(lp45
F-1.3368846540503756
aF-2.3008456509525326
aF-2.810478234271101
aF-0.11867319279801102
aa(lp46
F-0.3049895625953784
aF-0.163786046101731
aF-1.4019181357517887
aF0.07164535004298071
aa(lp47
F-0.08494059312549467
aF0.04563696234532572
aF-0.23764105032679658
aF0.34586917817767476
aa(lp48
F0.08829340314377225
aF0.5697344336818835
aF0.043996503460033275
aF0.20389314185694812
aa(lp49
F0.26251170336725266
aF3.0656447541505987
aF0.5752155865943017
aF0.32897794706037564
aa(lp50
F-0.139725318533158
aF-0.05527928716211615
aF1.3139444971785483
aF-0.824569685958117
aa(lp51
F-0.976572388969108
aF-1.064483427147296
aF0.5058896767659157
aF0.0
aa(lp52
F-2.342542174372907
aF-5.111663214939094
aF-1.4253835894309987
aF-4.228861960162858
aa(lp53
F-4.233933077464218
aF-4.652796150053331
aF-3.753505284833351
aF-4.98084167251962
aa(lp54
F-4.544284057084095
aF-5.743182393959457
aF-4.617296576736202
aF-5.571700146641917
aa(lp55
F-4.926163262031263
aF-4.304971044641297
aF-5.965143290892724
aF-4.9966827489020265
aa(lp56
F-4.546686251554746
aF-4.587404279562874
aF-5.534073419764643
aF-2.111099822488777
aa(lp57
F-1.7662910011093635
aF-2.6202907120071046
aF-4.114943461241214
aF-0.4008223543660852
aa(lp58
F-0.235497407523551
aF-0.2779391972459045
aF-1.1580257760305201
aF0.1559511820048711
aa(lp59
F0.06733056037367445
aF0.032173945460025215
aF-0.4733857924429861
aF0.5228933087419602
aa(lp60
F0.22783829149934298
aF0.7338468165908133
aF0.06900559956740412
aF0.33527049192012554
aa(lp61
F0.39674667692671944
aF3.723325300228803
aF0.2576729454335841
aF0.7731548657312272
aa(lp62
F0.04276171320404942
aF2.1481784448984604
aF0.0
aF-0.7746502980569107
aa(lp63
F-0.7458101745581703
aF-0.989546219397821
aF0.7403246846082174
aF-2.3668729444516985
aa(lp64
F-2.879124053824508
aF-1.8562407645636554
aF-1.3740723338195788
aF-4.80797261080824
aa(lp65
F-5.336488142249417
aF-3.6486705402601176
aF-2.8895330679942655
aF-3.114709665491239
aa(lp66
F-5.514096364296734
aF-4.464255924470603
aF-4.28418795860252
aF-5.147063142752517
aa(lp67
F-8.384103051077904
aF-2.281651629708904
aF-4.658491406791177
aF-5.814070093164137
aa(lp68
F-4.203762173971444
aF-2.7052968122607064
aF-3.524226745291431
aF-1.5181153096574838
aa(lp69
F-2.0377623473768343
aF-1.9925282686790058
aF-2.770365877267211
aF-0.13133084357188418
aa(lp70
F-0.3826802851654624
aF-0.8304587635428293
aF-2.6710289656076327
aF-1.1746261986093112
aa(lp71
F0.2519866984984426
aF0.04670246757394807
aF-0.29002266523218484
aF0.12656433290187283
aa(lp72
F0.298320297633856
aF0.447096226126763
aF0.19660267079856744
aF0.7910084232749023
aa(lp73
F0.21243450439117875
aF4.860234136817506
aF0.7216869005288785
aF0.25860608686916137
aa(lp74
F0.40549044890238445
aF3.069443827112489
aF1.103859047758181
aF-1.0284945967874877
aa(lp75
F-2.067878744454357
aF-1.31867719928896
aF0.06644756381529637
aF-2.006310710214997
aa(lp76
F-5.070370867158482
aF-3.1848925576120943
aF-1.4550912757776198
aF-1.817976561482247
aa(lp77
F-2.952047338380407
aF-2.488969080659414
aF-2.5855159467974893
aF-2.6409731087667208
aa(lp78
F-3.5029452409326742
aF-1.6639138511756337
aF-4.536225656592853
aF-3.2427191153823958
aa(lp79
F-3.666189427489553
aF-3.1133489846307767
aF-2.924592686506693
aF-1.7625251138247076
aa(lp80
F-2.472032799600236
aF-0.5915841771812508
aF-5.351716575615058
aF-1.652316771691253
aa(lp81
F-1.4857874045199428
aF-0.17393748837145132
aF-3.0447313604381576
aF-1.061919178936765
aa(lp82
F-0.09512053498426774
aF-0.16938499762995607
aF-2.078898619961815
aF-0.0007855275251522215
aa(lp83
F0.02977940480672836
aF0.0747241728662959
aF-0.3484086072241923
aF0.5974588348045677
aa(lp84
F0.34945826610527136
aF1.070186662179179
aF0.32790386391163445
aF0.4940982491299218
aa(lp85
F0.8852347320275631
aF6.89947826244998
aF1.5445530661709301
aF0.8910963075646148
aa(lp86
F0.9055490365198442
aF0.0
aF3.4945030604930416
aF-0.6181486701451542
aa(lp87
F-1.3700385195860407
aF-0.9041720994838184
aF0.33679020430110584
aF-1.010789439152323
aa(lp88
F-3.413333043718182
aF-1.2197186641736222
aF-0.6087342356517729
aF-2.4101545754011267
aa(lp89
F-3.260121266561383
aF-2.76337537569724
aF-1.5701215623521374
aF-2.8353344811955328
aa(lp90
F-2.8330522465399226
aF-1.7268361010024604
aF-2.954307109692321
aF-0.9066118455423833
aa(lp91
F-0.7476763260710311
aF-1.1473603837420736
aF-1.9692386330910705
aF-0.6231056044162349
aa(lp92
F-1.9427211959498343
aF0.3156253385053497
aF-0.39771907983497434
aF-0.6813307131703988
aa(lp93
F-1.874085142179801
aF0.2681778358135537
aF-1.6295163645990884
aF-1.0798866008792718
aa(lp94
F-0.03136545688550214
aF0.4751323626619842
aF-1.1954898798162257
aF-0.00993682683816259
aa(lp95
F0.05405462685379347
aF0.9773318335237169
aF-0.11179081066647478
aF0.3692978671854903
aa(lp96
F0.2629468428081258
aF1.209160540235365
aF0.38864562531211266
aF0.22071309041247747
aa(lp97
F0.4963865612778542
aF1.409145997916094
aF3.1528735616106616
aF6.23240147470894
aa(lp98
F1.0447902728105125
aF0.0
aF6.038833120443188
aF2.0887439249821664
aa(lp99
F-1.010789439152323
aF-0.6533119962330177
aF1.538575850251679
aF-0.7762501027846607
aa(lp100
F-3.509666854214878
aF-1.411068892710547
aF0.4681905119998577
aF-1.2207450502104091
aa(lp101
F-3.403709465365157
aF-0.6981039044915084
aF-0.20208481513988497
aF0.04820371198218765
aa(lp102
F-3.3893665047467483
aF0.5551670212740243
aF-0.26509525528460465
aF-0.7276940330391182
aa(lp103
F-1.9200810917070648
aF1.1529397714654066
aF-1.7195033260863668
aF-0.19774829033283542
aa(lp104
F-0.769470064962815
aF1.028393543716048
aF-0.40938587170694196
aF-0.2377541804423271
aa(lp105
F-0.4772311653429638
aF1.017644978189637
aF-0.10170137351479341
aF0.3897613854201609
aa(lp106
F-0.07327647181160396
aF0.8500607133999251
aF0.08534610530145385
aF0.06546325838121611
aa(lp107
F0.3073526801042659
aF1.3370750363255726
aF0.360948024967318
aF0.22718183686840304
aa(lp108
F0.2834990218110128
aF1.2812598536241413
aF0.824068478091165
aF0.9005199142474416
aa(lp109
F1.568340097418279
aF9.413041970412221
aF2.086105544780397
aF4.204327275720713
aa(lp110
F2.4686983643492284
aF8.003203555096663
aF5.221771480796527
aF4.863935942440559
aa(lp111
F3.9204795855672554
aF6.330867971441386
aF0.0
aF3.5021296640191943
aa(lp112
F-1.929453444465262
aF4.230790142228133
aF2.8423269505528372
aF1.6245691107396603
aa(lp113
F0.6872560682666226
aF1.840441102103991
aF2.148408506943812
aF1.2060460627712353
aa(lp114
F-0.9850155974302579
aF1.9190820700030502
aF0.5664364206011647
aF0.1885209546339665
aa(lp115
F-0.9136765586702883
aF0.965305608824581
aF0.04040196930623509
aF-0.006896142275648373
aa(lp116
F0.21215150553907397
aF1.9898222620284145
aF0.21371510105757413
aF0.5323428123873736
aa(lp117
F-0.0727640417979403
aF1.7414959926368563
aF0.009338261778791464
aF0.14541792521973143
aa(lp118
F0.5312671334596586
aF2.145014185143833
aF0.3402788266610645
aF0.672878141640962
aa(lp119
F0.47673738288834755
aF1.2899433038363561
aF1.8010089949084647
aF0.3401953522411888
aa(lp120
F0.7229305588299525
aF0.7074410783717895
aF1.57517471455151
aF0.6539605998999767
aa(lp121
F4.911590321750104
aF9.827484971257297
aF7.815498125361222
aF4.483419862145088
aa(lp122
F2.1915385291633185
aF8.434662440870087
aF7.942487281220553
aF5.714491861710662
aa(lp123
F2.6964890599628073
aF4.916592296268145
aF8.17948702968429
aF4.646218220308573
aa(lp124
F1.8253999414109365
aF4.416532983635298
aF6.8910467540498805
aF3.181983944445336
aa(lp125
F1.6548486789963948
aF2.9912258062707067
aF5.501183205480503
aF1.825908216342798
aa(lp126
F1.741436832218501
aF1.5119602899229418
aF4.607408018493577
aF1.9796102130604056
aa(lp127
F1.2148658825087737
aF3.763065912809274
aF2.1105485494539526
aF0.8863058248559932
aa(lp128
F1.1722730980940843
aF1.4823811857231552
aF3.282231864901446
aF0.7399556311814617
aa(lp129
F0.6485329199053715
aF1.766865864034018
aF3.0629405783905415
aF1.1936550692225698
aa(lp130
F1.1305866314915816
aF1.4677428956467873
aF2.7556604624775085
aF0.8719575041067655
aa(lp131
F0.915581371944256
aF0.8157774924605391
aF2.504846932460424
aF0.6098235108170131
aa(lp132
F0.5082316845421622
aF0.46358704404274814
aF1.699049925686117
aF0.21314919848510608
aa(lp133
F0.0
aF0.0
aF0.0
aF0.0
aa(lp134
F8.19486105159855
aF8.271391585227043
aF9.682143752813932
aF7.294527560496309
aa(lp135
F7.203140029100891
aF7.491463260066829
aF8.22858644443421
aF6.332635045341261
aa(lp136
F5.773390354673627
aF6.177296190759001
aF7.022915420421553
aF5.202782178022626
aa(lp137
F4.570003612788337
aF5.205085474673811
aF6.23031321671612
aF4.0145796793847435
aa(lp138
F3.8731488276373502
aF4.351622224147747
aF5.596738780176587
aF3.6118014977237762
aa(lp139
F2.9370031990640255
aF3.7819844118978776
aF4.787280107367471
aF2.710862487003665
aa(lp140
F2.5844579886519954
aF3.0130066069009405
aF3.969417538696748
aF1.8438428233095745
aa(lp141
F1.8161018432069294
aF2.5066126599195866
aF3.284923125635057
aF1.6193217459590814
aa(lp142
F1.6980923566913326
aF1.5736555646532542
aF2.874530380987229
aF1.4161040512592795
aa(lp143
F0.9415200524622213
aF0.8614485492446786
aF2.345323186976294
aF0.5378158952894591
aa(lp144
F0.2768270708495187
aF0.23090105380128848
aF1.605121685883689
aF0.28937171974671083
aa.