(lp0
(lp1
F0.0
aF0.0
aF0.0
aF0.0
aa(lp2
F0.0
aF0.08082780925009242
aF0.0
aF0.00494135735631214
aa(lp3
F-0.0167264663197151
aF-0.12840419873553519
aF0.0
aF-0.009364620079521224
aa(lp4
F-0.05967724157818065
aF-1.4743838674655727
aF-0.10194181760043641
aF-0.09952063453833256
aa(lp5
F-0.43213580095529813
aF-1.3224684662357655
aF-0.9199172359945581
aF-1.0105533939954097
aa(lp6
F-0.9928353694384493
aF-1.520149530844924
aF-0.46674794862370705
aF-1.0226842499694897
aa(lp7
F-0.954629405428693
aF-1.6197610564082576
aF-1.0562841149915696
aF-0.368580690462472
aa(lp8
F-0.7749155576605655
aF-0.5300586626533103
aF-1.3409063766794653
aF-0.15237481612600884
aa(lp9
F-0.3866711622158899
aF-0.1969308618474107
aF-0.3089673081099182
aF-0.05056179365889566
aa(lp10
F-0.020114282153835587
aF-0.4515339206204431
aF-0.12004995550624387
aF0.036680486833665524
aa(lp11
F0.019699935528150702
aF0.05342982583907637
aF-0.05143980092084764
aF0.2013345452959945
aa(lp12
F0.07222068572625137
aF0.2927442922073543
aF0.009574477491416614
aF0.04806095007302681
aa(lp13
F0.0
aF0.011075476020304746
aF0.0
aF0.0
aa(lp14
F0.006013093027027574
aF0.0
aF-0.016381813836199157
aF0.08419268497145072
aa(lp15
F0.028420261274614576
aF0.025305194426904907
aF0.3803126206488142
aF-0.06013313440212908
aa(lp16
F-0.43622297389611625
aF-2.944686780767357
aF0.20861276719352112
aF-1.1826182829676097
aa(lp17
F-0.9009394783455337
aF-1.793585722121633
aF-0.35096421052606475
aF-1.2787869267601917
aa(lp18
F-1.2825313685301816
aF-3.211822872275652
aF-1.455381616400844
aF-1.908375785236311
aa(lp19
F-0.6851635790863898
aF-3.801839141352389
aF-1.7356726318183027
aF-0.9308738799673494
aa(lp20
F-0.7060203014089041
aF-1.9008067224519845
aF-1.0098178456859364
aF-0.49326298206886854
aa(lp21
F-0.4209652189484127
aF-0.7416501384390917
aF-0.808667720886815
aF-0.17680509169976893
aa(lp22
F-0.12973451334285185
aF-0.38602577247100367
aF-0.44061984310082825
aF-0.33278331569763914
aa(lp23
F-0.010756477227600656
aF0.09806616708411586
aF-0.14176582684286976
aF-0.034783121029725236
aa(lp24
F0.0844716275904706
aF0.14471630888326814
aF0.05431348740364606
aF0.2882861868476532
aa(lp25
F0.2974949648183701
aF1.365326615594969
aF0.21050270288015516
aF0.0
aa(lp26
F0.057141805510155484
aF-0.26651563873138456
aF0.9472952557041016
aF0.06504316722154511
aa(lp27
F-0.09248466589503304
aF-1.234027169459485
aF0.8898060625983911
aF-1.7550999077301521
aa(lp28
F-1.116027903848975
aF-2.3691943115637195
aF-0.34948414611018436
aF-3.67998493643641
aa(lp29
F-1.3135162839436467
aF-3.651832144833095
aF-2.4734719119881503
aF-3.9285202617125883
aa(lp30
F-1.7090339797046417
aF-4.3346776398208196
aF-2.9104645100795006
aF-4.308249770709573
aa(lp31
F-1.319636327492423
aF-4.42320639182064
aF-3.468348606336023
aF-3.5277020194807633
aa(lp32
F-0.7131467560997378
aF-3.244112796230311
aF-3.163164924826051
aF-1.6495244143127616
aa(lp33
F-1.2648164146058283
aF-1.9944468824707207
aF-1.9937395053286746
aF-0.2608169018701016
aa(lp34
F-0.3652175694871052
aF-0.0970850471636331
aF-0.8272824221622364
aF-0.5211886102437348
aa(lp35
F-0.08554290829397926
aF0.008182759055684207
aF-0.04078067314511749
aF0.27384431391331177
aa(lp36
F0.043763241804694306
aF0.5185285069506214
aF0.05683837415130927
aF0.14253771997458936
aa(lp37
F0.2186583751915666
aF1.9585796196276706
aF0.2236378580057793
aF0.24852244663017192
aa(lp38
F0.05560465952576307
aF2.171974632626012
aF0.0
aF-0.7929826240956348
aa(lp39
F-0.6818430600767182
aF-1.2455718695255418
aF1.0297959781671269
aF-2.756309658059146
aa(lp40
F-2.538900178349215
aF-4.031781716494632
aF-1.6041904405983503
aF-3.0025089828334846
aa(lp41
F-2.6254574017001
aF-5.258021275765673
aF-3.6806796850283336
aF-5.936180075731631
aa(lp42
F-5.015197471557289
aF-8.459719278572921
aF-4.835376669764576
aF-5.946966086902178
aa(lp43
F-4.337897738258302
aF-5.815292262968126
aF-5.009275501022101
aF-5.410364083720239
aa(lp44
F-4.505763933762024
aF-5.2963079589950315
aF-4.682931504547766
aF-2.4784077898043924
aa(lp45
F-2.5693275712674333
aF-3.180219156444325
aF-4.042917843341245
aF-0.754133183494654
aa(lp46
F-0.8713978085090976
aF-1.7846281112788802
aF-2.2388148927971
aF0.05112366601811944
aa(lp47
F0.1640500053432565
aF-0.054688999748822846
aF-0.10756816947256398
aF-0.06006744827683515
aa(lp48
F0.15594825864359754
aF0.5481142057954174
aF0.04027902628001419
aF0.1606669013173526
aa(lp49
F0.22853563939813207
aF3.6880004160965267
aF0.6068798291123891
aF0.0
aa(lp50
F0.5904957672984811
aF0.3299527533961508
aF2.9613926658551084
aF-0.9404290718394489
aa(lp51
F-1.0957053803351307
aF-1.6131138227306225
aF0.9287921228872191
aF-3.132599978984091
aa(lp52
F-2.5352520037175728
aF-2.3246965692949457
aF-0.38249203137321885
aF-5.549777562691962
aa(lp53
F-5.567632986281749
aF-5.5023252928982105
aF-4.734140754416142
aF-5.577047012608625
aa(lp54
F-5.284862487865896
aF-5.11989891352876
aF-6.8165772483840215
aF-7.266741379715553
aa(lp55
F-6.183559090289907
aF-4.4424135231076285
aF-7.544093084227319
aF-5.495385223307648
aa(lp56
F-3.3786799586824596
aF-3.439122895331313
aF-5.468091048452059
aF-2.964762749957676
aa(lp57
F-2.705483405647398
aF-1.8227506233896094
aF-4.491043396338616
aF-0.7567954729541514
aa(lp58
F-0.7186206408106102
aF-0.33338738621439357
aF-0.70098291211352
aF0.002766848005951228
aa(lp59
F-0.03690966494607042
aF-0.0316908685729612
aF-0.10115574653885576
aF0.44280710723419514
aa(lp60
F0.1465916691159434
aF0.7283132971885212
aF0.14549153355812613
aF0.07146993916123792
aa(lp61
F1.0960164992124446
aF5.256894177120561
aF0.05915310126115307
aF1.2404695787206854
aa(lp62
F0.5119804241678726
aF3.6722497381444557
aF0.0
aF-0.9647864678389828
aa(lp63
F-1.4198824402603885
aF-1.209393492023798
aF1.8271965290240093
aF-1.330778812737743
aa(lp64
F-3.659406908033783
aF-1.9549959991521495
aF-0.6856223646939587
aF-4.548879771147872
aa(lp65
F-6.4223238169466565
aF-1.7907076693693176
aF-1.9591840648561696
aF-4.0974597133331905
aa(lp66
F-6.450604851069988
aF-4.017755694396809
aF-5.560643303654517
aF-8.06277547899113
aa(lp67
F-5.383422497073649
aF-5.0553925719513195
aF-4.783388391430508
aF-5.405479815552951
aa(lp68
F-4.615921401173469
aF-3.1922619006078286
aF-5.517900464137261
aF-2.359423696555299
aa(lp69
F-3.960173244242031
aF-1.431273040842632
aF-2.9766545588234026
aF0.001754568450513249
aa(lp70
F-0.47416149808791846
aF-0.28009828929000535
aF-2.309520180295003
aF0.13010399714454546
aa(lp71
F0.00736883964415669
aF0.03570590575358146
aF-0.18498294351459085
aF0.5860253410127341
aa(lp72
F0.1959149427227418
aF0.8770056120034485
aF0.2260313004954295
aF0.1419940100635692
aa(lp73
F0.4761387295961156
aF5.815886588239986
aF2.2749412834892677
aF0.2010209362486351
aa(lp74
F-0.5932053838730762
aF-0.6121424451968225
aF3.997376187384387
aF-1.3311753358495146
aa(lp75
F-7.0789797640979595
aF-0.7671863778552623
aF2.0322087570514706
aF-2.7440384651936904
aa(lp76
F-2.2495523512653812
aF-1.9610617916224116
aF-1.2218582207181732
aF-4.222376266675488
aa(lp77
F-3.055519746237593
aF-0.9901956164880359
aF-4.86080610394981
aF-3.3990076454333034
aa(lp78
F-2.9155778085059607
aF-2.0320332708587547
aF-4.355643007436397
aF-2.730542429335536
aa(lp79
F-4.246854615411598
aF-0.9477564361037873
aF-4.675662462535437
aF-2.362244768043115
aa(lp80
F-5.217847691988564
aF-1.3113309062694776
aF-2.5066866271519084
aF-1.0815042714567815
aa(lp81
F-3.588214895778368
aF-2.3752186738839196
aF-3.5115221541933646
aF-0.039749373415985126
aa(lp82
F0.03271581476114857
aF-0.05595262026714967
aF-1.0495681276089852
aF-0.012719406635347139
aa(lp83
F0.027392003593112578
aF0.5560280342855912
aF0.058834236596820425
aF-0.0388191444101277
aa(lp84
F0.21984454070991857
aF0.9272506891494166
aF0.3310102975136008
aF0.532069380669067
aa(lp85
F1.0681101690753616
aF6.854458309453128
aF0.5880996586566862
aF2.3161619763448784
aa(lp86
F0.3577783721026335
aF5.7178871681063095
aF2.1728386122171286
aF-0.05598157845912451
aa(lp87
F-1.58930692144978
aF-0.9672350078410454
aF1.4121375591641165
aF0.0
aa(lp88
F-3.9577745103431585
aF-0.009173938512231583
aF-0.9928046457599801
aF-2.0405968710737428
aa(lp89
F-2.6762503841710084
aF-1.6506880573551859
aF-2.207739158643653
aF-1.0066342977281546
aa(lp90
F-3.02007540004771
aF-0.2704433482890014
aF-2.974334560355901
aF-0.998681795089372
aa(lp91
F-3.336034074980253
aF-1.4071614708640297
aF-2.8802841339351692
aF-1.5309730509360735
aa(lp92
F-2.6185259666551213
aF-0.24936327584258183
aF-1.9600197806888668
aF-0.5089805156660339
aa(lp93
F-1.5319947797569162
aF-0.1684866694537825
aF-0.21797696373200653
aF0.0003196433850720104
aa(lp94
F-0.6699985370304308
aF0.03269595359030337
aF-0.11233215015544668
aF0.2770775067408806
aa(lp95
F0.08233203153710947
aF0.6618765038414399
aF0.013174833108278876
aF0.23428253066185406
aa(lp96
F0.46243324958298926
aF1.1002452405658643
aF0.40847955082701715
aF0.3728964224538462
aa(lp97
F1.2166852450817567
aF7.825088368046395
aF3.689534187866096
aF5.190413248449828
aa(lp98
F1.5954768522143095
aF6.907976099982
aF0.0
aF-0.5261836445530143
aa(lp99
F0.004534152043018713
aF1.7883100566639307
aF0.8471171072714293
aF-0.517948035171943
aa(lp100
F-1.8456852649774387
aF0.800192840822568
aF1.833773492373454
aF-0.7997608127573907
aa(lp101
F-1.9337297527642447
aF1.6519955869435257
aF-0.10786354584096935
aF-1.3061766302755538
aa(lp102
F-2.0840638296741214
aF1.710765188515424
aF-1.3100991730765985
aF-0.2916634128931572
aa(lp103
F-1.1203023696653072
aF0.43353836568999393
aF0.13689046310823577
aF-0.025037380627759648
aa(lp104
F-1.5321265612483437
aF0.5881286544723131
aF-1.0039685157885414
aF-1.0397933037422415
aa(lp105
F-2.1529329008802858
aF0.6743204252814768
aF-1.0589341101427687
aF-2.464584870053869
aa(lp106
F0.03304927400313517
aF0.19049420511698878
aF0.3037112949322275
aF0.06557828985434978
aa(lp107
F0.09434305365213862
aF0.4069841534100043
aF0.09911571768249008
aF0.9923300862444344
aa(lp108
F0.49938353101163196
aF1.1987705015296077
aF0.5859526404861237
aF0.5488412976421317
aa(lp109
F1.1778931399074855
aF9.209582980910548
aF4.384594822583011
aF4.76133468641233
aa(lp110
F4.932382615078682
aF7.758833665619029
aF6.202863651181096
aF2.1208778872044713
aa(lp111
F0.8626210403602854
aF5.211856993197266
aF7.1501296961389595
aF1.605588927569888
aa(lp112
F1.0401650423468327
aF1.4230973245945928
aF3.53515239147795
aF0.24410021580802596
aa(lp113
F0.3923359652883247
aF0.7270566775090722
aF0.4284412810541004
aF1.160959014513264
aa(lp114
F-1.8737395693923653
aF1.481004576509684
aF0.47646129777945356
aF0.1681949284001314
aa(lp115
F-0.43732408115612575
aF1.3698240062886748
aF0.22789743939408008
aF0.500290482306826
aa(lp116
F-0.9634710518895924
aF0.10484138623757781
aF0.19528033264529998
aF0.3026175365329023
aa(lp117
F0.22108146435658685
aF1.327903275961649
aF0.24414229544145682
aF0.22090792993939679
aa(lp118
F0.08787494182825062
aF0.08236564003562323
aF0.14045884525889388
aF0.024342948075290496
aa(lp119
F0.38655242877803037
aF1.3808268382363684
aF0.04360908066161062
aF0.40006688104626137
aa(lp120
F0.7031112591041934
aF1.4293275706429263
aF0.7588030848235551
aF0.6583802375690647
aa(lp121
F3.1736920695655955
aF9.687762941958935
aF8.801243154607862
aF7.54286551451359
aa(lp122
F5.691526822518028
aF8.45701763369167
aF7.561978842316538
aF7.074474949961097
aa(lp123
F4.345291946407491
aF5.526895955357615
aF7.974268102931919
aF3.886397420180137
aa(lp124
F4.181985164433013
aF3.4203834762820513
aF6.712590204527956
aF3.1611554991531987
aa(lp125
F2.1486214553316167
aF2.3687395159707667
aF5.388851657736676
aF2.5255593853224902
aa(lp126
F1.9815193284890709
aF2.530926092187254
aF4.861145986770431
aF1.1256320346681685
aa(lp127
F1.3901574863414508
aF1.2682290820953739
aF3.1714171869828607
aF0.7197271092887277
aa(lp128
F0.4626715303688306
aF2.792596789405595
aF1.044406498358351
aF0.5098057225356346
aa(lp129
F0.17923411699128666
aF2.2652511201566536
aF0.8914882409998104
aF0.908474734814664
aa(lp130
F0.48290733849044937
aF2.242805234715926
aF0.7907151735527033
aF0.5853073484246617
aa(lp131
F0.54269515667209
aF0.9993917273743808
aF1.9452884097141403
aF0.8729219928225272
aa(lp132
F0.8189272515373
aF0.7903818915360191
aF1.7160649224476863
aF0.7971053883650903
aa(lp133
F0.0
aF0.0
aF0.0
aF0.0
aa(lp134
F7.602078121285969
aF8.021655357358744
aF9.663364209751093
aF7.054961851849123
aa(lp135
F6.529030628858249
aF6.588709205386973
aF8.024373781832
aF5.680643161872213
aa(lp136
F5.748914876172503
aF5.900579760392314
aF7.252766203471365
aF5.077992453367005
aa(lp137
F4.07392896032817
aF5.022466203732978
aF6.080295897299431
aF4.214934464684562
aa(lp138
F3.7377637475352237
aF4.320689539377179
aF5.231871467767423
aF3.256820000914059
aa(lp139
F2.928785494538617
aF3.554669940635843
aF4.5315055387506415
aF2.4446809425722664
aa(lp140
F2.529354609395403
aF2.4677883030835726
aF3.8800479218499375
aF2.072756082215185
aa(lp141
F1.6836379392974379
aF2.0772830585553246
aF3.406359818516546
aF1.6536306337204718
aa(lp142
F1.3620410798729
aF1.9334287885178496
aF2.716477609685148
aF1.6480880716472857
aa(lp143
F1.3598581305786224
aF1.5062378564017957
aF2.4415173550936893
aF0.9934598816514252
aa(lp144
F0.7777738377793078
aF0.9046620739974582
aF1.9196668220738122
aF0.9312382615972346
aa.