(lp0
(lp1
F0.0
aF0.0
aF0.0
aF0.0
aa(lp2
F-0.4745305760995773
aF0.9154595172904855
aF0.0
aF0.0
aa(lp3
F-2.974023089490779
aF-6.212024045790062
aF0.944796447639278
aF0.0
aa(lp4
F0.7372979849493683
aF-0.5904913153862561
aF-1.0546161782757995
aF-1.0515418145636866
aa(lp5
F-1.221380787334111
aF-6.110059086559571
aF0.2155880484819095
aF-1.3767982199653932
aa(lp6
F-6.058079805055659
aF-1.8013880231311012
aF0.732924923491223
aF-5.78546851756589
aa(lp7
F-2.893010368714258
aF-2.2499983392147573
aF-2.113153727457702
aF0.3120783778476669
aa(lp8
F-2.3281789028870468
aF0.24250959064833358
aF-1.1064724156108792
aF-0.7252150639965131
aa(lp9
F0.18944844726285465
aF0.37494086206717875
aF-2.8630792557829783
aF0.19981717407025662
aa(lp10
F1.6595553896313378
aF1.1977548009767125
aF0.12075053068811696
aF2.0325886423298773
aa(lp11
F0.6743918226258139
aF0.4297772602392915
aF0.2695031113363821
aF0.24434108978554087
aa(lp12
F0.20480398880426454
aF1.0102935114324447
aF0.26495357827744725
aF0.29006108856399654
aa(lp13
F-0.3252208417973589
aF0.0
aF0.0
aF-0.36500655645045943
aa(lp14
F-0.2600853726401153
aF1.9416255614293456
aF-0.20496947359189616
aF0.0
aa(lp15
F-4.137149655228168
aF-4.0492003411584365
aF1.829036659029684
aF-3.5609053027837945
aa(lp16
F-1.3370072210623134
aF-1.2333812060873275
aF1.115621388668368
aF-2.02703648902946
aa(lp17
F-3.271629999499923
aF-39.45830512544524
aF1.3122997178438103
aF-1.6047418671370404
aa(lp18
F-3.015891591622637
aF-6.576829868294046
aF-8.797816037272773
aF-0.39085447192365014
aa(lp19
F-4.747076915412644
aF-4.142626967824614
aF-3.92619834735822
aF0.25691747991294556
aa(lp20
F-3.1663534666602327
aF-1.1666418633137003
aF-2.1671133479941327
aF0.657204757876942
aa(lp21
F-0.5228476087613336
aF-0.8494560226910143
aF-3.101483361110081
aF0.3184695208666652
aa(lp22
F-0.35823453613525225
aF0.8194943521094659
aF-1.3041781426230348
aF-0.7406540079199927
aa(lp23
F-0.1515158591336536
aF0.3755923239243427
aF0.7791877550595812
aF0.03891914095027139
aa(lp24
F0.4147061826282038
aF0.07653531908522239
aF0.3565520764360848
aF0.930384140383233
aa(lp25
F-0.2897717700414471
aF-0.23004430257227382
aF0.0
aF0.0
aa(lp26
F0.8962923307328763
aF2.8335439133765536
aF0.8396554328149549
aF-0.2843096988350547
aa(lp27
F-3.207111280981635
aF1.1873277339209731
aF-3.746182475069667
aF-3.461994361111333
aa(lp28
F-6.833893339407017
aF-4.496713458489764
aF1.3385256927801288
aF-5.125753350141941
aa(lp29
F-2.890642559416582
aF-6.831955676987989
aF-6.479267741458564
aF-4.717930136592327
aa(lp30
F-5.433066849128486
aF-8.295415470395143
aF-4.163757653276404
aF-5.070617721147967
aa(lp31
F0.22541001160787072
aF-7.448263659299159
aF-9.335411150773856
aF-5.333671335949372
aa(lp32
F-0.4739973919115366
aF-3.543096014391876
aF-3.952109858178168
aF-1.6921771664493181
aa(lp33
F-1.6252563064088268
aF-1.8852673348580493
aF-1.397930734204971
aF0.8532186070128792
aa(lp34
F0.24354546714806488
aF-0.007998493850646667
aF-0.5005658375552995
aF0.9437691826820495
aa(lp35
F0.1167295838928962
aF0.3971233796794768
aF0.10462347761096001
aF1.086147606401753
aa(lp36
F0.44963088293895564
aF1.1868850061115153
aF0.16667892213790522
aF0.10675343535542575
aa(lp37
F-0.258186647106929
aF3.026661746830058
aF0.0
aF0.08427532306128682
aa(lp38
F-0.03529992008033681
aF0.0
aF2.5215100464432
aF-0.16944951429842156
aa(lp39
F-5.26129018149463
aF-4.662698994653008
aF2.826291940907524
aF0.47210043933650586
aa(lp40
F-3.751103945952558
aF-2.7527159828923624
aF1.393675531035846
aF-8.20012605186694
aa(lp41
F-4.038401965655817
aF-9.096022668181558
aF-1.248869614748846
aF-6.901481267764493
aa(lp42
F-2.091158735731783
aF-13.580125595881734
aF-3.235524181804898
aF-7.8413613037936285
aa(lp43
F-6.543990816856692
aF-5.5808071020841465
aF-8.964506928456133
aF-2.795179425331912
aa(lp44
F-4.114182031663485
aF-6.486513336065486
aF-3.3799215037874384
aF-0.793995486144133
aa(lp45
F-1.555159438785395
aF-4.053355835716826
aF-7.260392578975682
aF0.6306791956497763
aa(lp46
F0.11978145397477162
aF1.199169322288924
aF-1.1737781866984294
aF-0.2676517253497823
aa(lp47
F0.4626542531376676
aF0.14009388827134456
aF-0.4663284696959237
aF1.1176950009248747
aa(lp48
F0.4636776099719295
aF1.3591347243108314
aF0.36622807073697505
aF0.4927393315632538
aa(lp49
F0.2990944938967751
aF1.539275870054114
aF0.2238108712893636
aF4.006909334324895
aa(lp50
F0.9304694878489576
aF0.6915907173563203
aF4.456747867384455
aF0.30526048518195875
aa(lp51
F0.11308279317183655
aF2.661042253971356
aF-3.839323788488263
aF-2.3035075836290058
aa(lp52
F-15.739006995385493
aF-10.494562755491286
aF1.4415373033675993
aF-10.287562634975385
aa(lp53
F-6.201261320110785
aF-11.585905923846772
aF-14.208301035982721
aF-20.635895756800075
aa(lp54
F-8.661210618316945
aF-6.614618646172304
aF-10.331818248495653
aF-10.175517550903049
aa(lp55
F-4.573562068392328
aF-4.146899754365398
aF-10.3179549897257
aF-5.391754038454774
aa(lp56
F-2.3978382559217137
aF-5.6017392645717115
aF-10.846809057678255
aF-3.8071548333424907
aa(lp57
F-13.694818095774414
aF-2.693866503277579
aF-8.769957341285325
aF0.5779327297947853
aa(lp58
F-1.1315556197758616
aF0.05532692825080232
aF-0.4949695506520914
aF0.8440615741471776
aa(lp59
F0.5134143136652657
aF1.1650340505242818
aF0.32878383515274096
aF-0.04848782373845102
aa(lp60
F0.8050230471941328
aF1.2198675892911686
aF0.42961428958689485
aF0.9810193202645666
aa(lp61
F3.0506806554942636
aF6.041723595385081
aF-0.6265783897845324
aF0.6856152812085318
aa(lp62
F-1.2020643854789055
aF-0.9634305411722788
aF4.701258139119387
aF0.10639681361205056
aa(lp63
F-3.6411169581127663
aF0.7888739465348982
aF4.188192300846194
aF-3.496772987044029
aa(lp64
F-17.21210923782235
aF-1.4697831067854492
aF-9.89956031826695
aF-6.223978407041542
aa(lp65
F-19.2209157946657
aF-3.7404424163805836
aF-5.305045575447235
aF-10.955972943753105
aa(lp66
F-8.049998998988604
aF-15.91300344680362
aF-13.327965905606861
aF-8.076008370840977
aa(lp67
F-13.887697481441876
aF-4.5700022082351595
aF-5.715285716379095
aF-3.2938397773593273
aa(lp68
F-5.5803566258106745
aF-3.9450202843261364
aF-4.800669634698446
aF-1.1166796425095
aa(lp69
F-5.495087113345566
aF0.24475230672946144
aF-4.068491221282417
aF-17.482070729303533
aa(lp70
F0.3160393638530169
aF-0.9203875164134118
aF-42.538845073975594
aF1.30473802800884
aa(lp71
F0.5448638648769256
aF1.416743492624389
aF0.6026865408473228
aF0.38161383373995417
aa(lp72
F-3.800285302434741
aF1.6154867755000826
aF0.423144428489263
aF0.48722325471062927
aa(lp73
F3.515177654547409
aF3.5985161990091017
aF6.0100240077628575
aF3.927668018599839
aa(lp74
F-0.5968523451875307
aF3.1484158667616438
aF5.319407114966727
aF-1.785650267942753
aa(lp75
F-7.134770882223187
aF-16.181530551693253
aF5.449972380438496
aF-6.661000095694889
aa(lp76
F-17.651744676370377
aF-3.3436519996578404
aF-47.23590421089488
aF-109.18582754461099
aa(lp77
F-19.395576646332344
aF-10.115231085963245
aF21.96954554392677
aF-2.8033075344041842
aa(lp78
F-11.698483377374746
aF-8.641674637894535
aF-39.81629197111412
aF-2.185512961087402
aa(lp79
F-4.1702093177648925
aF-1.2775468198010942
aF-5.247544507585761
aF-9.320798425391693
aa(lp80
F-8.481588062726642
aF0.2686955350965464
aF-4.861538953359864
aF-0.9283744230584223
aa(lp81
F-1.233662101265492
aF-4.957742933775963
aF-1.618911072569746
aF1.3746352692029324
aa(lp82
F-0.007829452437063318
aF0.48209851174757884
aF0.1331850021629356
aF1.4694904617647946
aa(lp83
F0.5444671038679882
aF0.5324171103686759
aF1.8272945486400527
aF0.8124115845571284
aa(lp84
F0.46040997588466215
aF0.9924760129764331
aF1.4450579975072786
aF0.6154197391524425
aa(lp85
F2.0270534724432867
aF7.688685059286039
aF3.721563178055545
aF1.1213850039257809
aa(lp86
F6.821764758523126
aF2.4332427643928924
aF7.297648214666221
aF0.0
aa(lp87
F-44.31013725229968
aF-27.920947658175518
aF12.531144296744262
aF-46.243832788897855
aa(lp88
F-4.367544100968518
aF-1.3519372529937945
aF2.796309080267584
aF-11.910073130076755
aa(lp89
F-0.44632609576912924
aF0.6489105080619914
aF-1.0601711900162676
aF-10.19547745855709
aa(lp90
F-7.491597796345034
aF-17.128954529187173
aF-1.8436330755463821
aF-1.4223461013433167
aa(lp91
F-8.792689063788162
aF-28.621646619086153
aF-1.8330428730177903
aF-0.27560466476960405
aa(lp92
F-8.799280806472355
aF-0.6044448897740532
aF-0.3396892679689577
aF1.1577930297267498
aa(lp93
F-1.772365202750637
aF0.01614460023397821
aF0.09610283451135193
aF1.513958555279236
aa(lp94
F0.8420938012649813
aF2.490277925166434
aF0.7579637833559244
aF0.2895826354020581
aa(lp95
F0.6306513283772716
aF0.6277856728472825
aF0.6298961608657468
aF1.555025304209383
aa(lp96
F0.5103034412358967
aF1.9004239669376464
aF0.6640534114401109
aF0.8163983791879991
aa(lp97
F2.8233288950398916
aF1.3841174852510614
aF5.189545449109214
aF6.730388612823833
aa(lp98
F2.1510324268032726
aF6.840986611848647
aF0.9399884072224317
aF3.4157891268175535
aa(lp99
F-25.53044102430795
aF4.408906064205954
aF0.996517244828036
aF-22.129915204042312
aa(lp100
F-1.8146759709632085
aF-30.352629580851925
aF-1.6951779390633213
aF-1.9906765518155813
aa(lp101
F-14.468250176891013
aF-1353.983826418074
aF100.10609022562781
aF-1.5858354168096573
aa(lp102
F-48.64311875887912
aF2.0434788135595334
aF-4.921087371356109
aF-7.683759336336375
aa(lp103
F-34.23601692733175
aF1.730709445139227
aF-1.0927227394236492
aF-2.363871428628435
aa(lp104
F-1.4621830023040545
aF2.8063762941657466
aF0.5062293673005464
aF-1.7486573039695774
aa(lp105
F0.18520405892893654
aF0.8135832841139815
aF2.690099203811456
aF0.8674101255747269
aa(lp106
F0.7571173930679688
aF0.8627403087215789
aF2.8063769883053733
aF0.7435171756235289
aa(lp107
F0.0715157603613595
aF1.5997052014663182
aF0.5830318404767324
aF0.6016171242507221
aa(lp108
F1.2589477976590624
aF1.9377554349579431
aF1.0233952411792733
aF0.9697739181258996
aa(lp109
F7.47312353127538
aF9.593484509619362
aF6.8800156047389756
aF1.2861425233668557
aa(lp110
F5.547333746909122
aF4.791542637522568
aF8.306487298959443
aF5.045979742836295
aa(lp111
F-24.470275953801355
aF-1.4578587892052501
aF7.449176103229567
aF-0.9355916229058269
aa(lp112
F-0.4402070151409888
aF-1.9906815225992298
aF-0.6698281494602789
aF3.7446476774618227
aa(lp113
F-2.2695847058009475
aF5.790719174670052
aF0.8779699606472547
aF0.8598527067585527
aa(lp114
F0.8888040939319563
aF1.9964575331795709
aF1.458860367458717
aF-0.08799597518169623
aa(lp115
F-0.741884643730021
aF3.079173510938236
aF1.7072026578608415
aF0.8452550568180371
aa(lp116
F1.9412986916051083
aF3.557161107168047
aF1.2746636588658375
aF1.294652618228569
aa(lp117
F2.4490666602276074
aF1.2243357417313385
aF3.57049595387347
aF0.7915092444826612
aa(lp118
F0.546300241091936
aF0.9390512166189479
aF2.7534648903025345
aF0.764660890431292
aa(lp119
F1.1314440576003253
aF2.135759929857858
aF1.2010094057044458
aF0.9465569881366193
aa(lp120
F1.3041444815952
aF0.9944575136566735
aF2.1720399412908713
aF1.3778999006334909
aa(lp121
F5.832066688449104
aF9.784087574406943
aF4.6855505735532805
aF4.541516116466916
aa(lp122
F4.852176104718046
aF8.507416963223308
aF7.161453637318849
aF6.240008293693938
aa(lp123
F5.544123521522314
aF7.598223228339239
aF5.932840945316594
aF5.022491639461876
aa(lp124
F3.4623145875340353
aF3.83489679864271
aF7.008000595460855
aF2.7826052270943493
aa(lp125
F3.2042386571608796
aF3.386821079141534
aF6.32663119848896
aF3.2569736608048774
aa(lp126
F1.4119836356301545
aF3.5767411882661784
aF5.561094728096878
aF2.5352101789974864
aa(lp127
F2.7704153349738054
aF2.1129723572040375
aF4.939782373345801
aF1.836165599885386
aa(lp128
F1.2366114787843066
aF1.944629614752957
aF4.109195446786639
aF1.3762743935266013
aa(lp129
F2.6597520215324892
aF1.3447610757277673
aF1.2947964853707465
aF1.074917371413304
aa(lp130
F0.8641118682711647
aF2.8777161018867448
aF0.42126827723690635
aF0.7539796513701374
aa(lp131
F1.5846172225799444
aF1.1944668245528698
aF2.7086144097879905
aF0.9729633880168472
aa(lp132
F0.9123518105121481
aF1.2990732996658345
aF1.9773004459818337
aF0.6531299221552006
aa(lp133
F0.0
aF0.0
aF0.0
aF0.0
aa(lp134
F7.905718956266453
aF8.365621185085084
aF9.872998093746263
aF7.317689535338417
aa(lp135
F6.555184757725646
aF6.800074736665329
aF8.853974923414539
aF6.115601193111727
aa(lp136
F6.070943371561334
aF6.259325488355336
aF7.5161591724890355
aF5.510524562797495
aa(lp137
F5.310686565034597
aF5.269493954006117
aF6.456518465156569
aF3.9877481593758763
aa(lp138
F4.3260462546540035
aF4.578714441135303
aF5.733205094283299
aF2.9591773189463852
aa(lp139
F3.198947823123287
aF2.4219404514743794
aF4.962594324904372
aF2.5316572582338255
aa(lp140
F2.6312330609651076
aF2.4806465630916734
aF4.3215594081662525
aF2.7293109056656064
aa(lp141
F2.5861506846085724
aF1.6638651710049024
aF3.8791935003446762
aF1.927964590601682
aa(lp142
F2.1375496892698163
aF1.6232922150779856
aF3.303162958315101
aF1.6867122566555277
aa(lp143
F2.274035002387307
aF1.3302914756297286
aF1.7604436753085695
aF1.4976618616972213
aa(lp144
F0.7327763682302637
aF1.3090878433497175
aF1.911313354604782
aF0.7283798759121932
aa.