(lp0
(lp1
F-0.08077057480927745
aF-0.10583529861834243
aF-0.07998963210296617
aF-0.11922422845458056
aa(lp2
F-0.20719750785834457
aF-0.12980057026028363
aF-0.1827638779805398
aF-0.2225451533784917
aa(lp3
F-0.24712841127537577
aF-0.3453933154218697
aF-0.16012220627861326
aF-0.24469537807737507
aa(lp4
F-0.2911794126639832
aF-0.45789810176648243
aF-0.19548301071992003
aF-0.17748855960502238
aa(lp5
F-0.28796396227696575
aF-0.38283895985070826
aF-0.2325713879675485
aF0.1415468033746835
aa(lp6
F0.075861915004011
aF-0.04986584397534385
aF0.02549809363927317
aF0.37071904364431263
aa(lp7
F0.2374223456076312
aF-0.07931048396529038
aF0.0594221487505041
aF0.42218085759552043
aa(lp8
F0.3157065496078578
aF0.14048682812137542
aF0.22971088972552192
aF0.47086063397401795
aa(lp9
F0.28702540698887496
aF0.26596431006018145
aF0.28994305209994803
aF0.5488367091757391
aa(lp10
F0.44910748138551565
aF0.4511989872921398
aF0.22492634948232582
aF0.6743628545768302
aa(lp11
F0.6250273368388292
aF0.8211756828235559
aF0.4366574576850464
aF0.5795436219482447
aa(lp12
F0.5459895032157384
aF0.7954987999642025
aF0.5762350375506559
aF0.5871277688837778
aa(lp13
F-0.29478522569957205
aF-0.27870602129038385
aF-0.16147849785572518
aF-0.17991680153583697
aa(lp14
F-0.15381332272634182
aF-0.84319221778086
aF-0.11947367527210306
aF-0.21708424482290556
aa(lp15
F-0.5490825645172
aF-0.5954183178371146
aF-0.31200583880791016
aF-0.253881658271745
aa(lp16
F-0.20307960730469704
aF-0.7735414288410754
aF-0.5456987662723087
aF-0.7229813531981101
aa(lp17
F-0.11571490770520497
aF-1.7840345412237126
aF-0.5582571323104026
aF-0.24317211691218657
aa(lp18
F0.0831245453944108
aF-0.6345773351786941
aF-0.2716421073726348
aF-0.39792238858075113
aa(lp19
F0.1919133261959136
aF-0.329933426707024
aF-0.0022790093188074087
aF-0.05283018857758712
aa(lp20
F0.40499531980609244
aF-0.38204792166846746
aF0.003503205649485826
aF0.11774341046351917
aa(lp21
F0.3209810085932356
aF-0.3253731772823587
aF-0.1367654762265635
aF-0.11923499874828489
aa(lp22
F0.28466756480442446
aF-0.03639212123952085
aF0.06895454661911164
aF0.6517272141322623
aa(lp23
F0.5367193071514589
aF0.5968448482368652
aF0.38008385744038853
aF1.014446657143479
aa(lp24
F0.6191527098317905
aF1.3594784861506426
aF0.6771624243018047
aF0.9008430827730718
aa(lp25
F-0.07456371260199458
aF-0.21845626552811354
aF-0.12692816418509592
aF-0.7003694436370718
aa(lp26
F-0.28958149971881375
aF-0.3984943697104605
aF-0.26281756194677486
aF-0.8079394759516136
aa(lp27
F-0.42450872562601266
aF-2.800707468384046
aF-1.703402710869194
aF-0.8811386524547195
aa(lp28
F-0.5709207393912864
aF-2.7162567583560264
aF-1.1868498708812112
aF-2.088815454093821
aa(lp29
F-1.4416784740675268
aF-3.33066623764472
aF-1.119849638372081
aF-1.8487816497568597
aa(lp30
F-0.7870794360545413
aF-4.1449958092418955
aF-1.7308496771407949
aF-0.5921732013567553
aa(lp31
F0.005341700667298559
aF-2.443214921555525
aF-1.1102303183994247
aF-1.3350550548367015
aa(lp32
F-0.24510447748525035
aF-2.639268314429152
aF-1.902176646857887
aF-2.8857300724857216
aa(lp33
F-0.22641210485823957
aF-2.407133443489735
aF-0.7335034879140272
aF0.18192333988756454
aa(lp34
F0.43860862955872276
aF-0.0032855714033316837
aF-0.07340515362862346
aF-0.046179957929302
aa(lp35
F0.7974540032520628
aF0.03159278818754038
aF-0.08565962034971852
aF0.13400787085564625
aa(lp36
F0.8285424826463234
aF1.6225009765478449
aF0.6006906291043485
aF0.841940801634913
aa(lp37
F-0.12903535417851958
aF-0.45929109149841435
aF-0.29670166271117615
aF-0.5344712339502605
aa(lp38
F-0.2297325563871676
aF-1.4907443177828095
aF-0.67936969176591
aF-3.943145224809139
aa(lp39
F-3.908223242070393
aF-4.566020891717823
aF-2.202692661839919
aF-3.818024298281222
aa(lp40
F-1.370660102899651
aF-6.881187821706123
aF-3.2253495430069283
aF-5.434136716650666
aa(lp41
F-1.5704582590604594
aF-7.881118175890274
aF-4.408441005788268
aF-7.214290154956364
aa(lp42
F-2.0621127893308246
aF-9.526135962854452
aF-3.79028151118273
aF-6.363621368324742
aa(lp43
F-0.39105762988084014
aF-8.690511188972778
aF-5.699540241016423
aF-3.183820762238979
aa(lp44
F-1.356361684930838
aF-5.170133490479061
aF-3.265923448981018
aF-2.130831523339468
aa(lp45
F-0.7482553123139571
aF-3.5527702763029314
aF-4.606999382225623
aF-1.2936811426074264
aa(lp46
F0.15584801265003448
aF-0.6074064440627781
aF-2.620578690606298
aF-0.38432643274659545
aa(lp47
F0.1890159330063604
aF1.1200895120171583
aF-0.3108622931529863
aF0.233316421949394
aa(lp48
F0.9369686727884775
aF1.8316276865720518
aF1.001856404492132
aF1.0726431227659303
aa(lp49
F-0.329309771832199
aF-1.1605464612348753
aF-0.8588327346406424
aF-1.452296823326233
aa(lp50
F-1.0438613085938306
aF-1.908462352581406
aF-1.1536101214973085
aF-4.184014208174437
aa(lp51
F-5.901709104288954
aF-5.03781488775875
aF-1.6157732968648768
aF-7.084364206355539
aa(lp52
F-3.7803327808146214
aF-7.50140570539286
aF-6.386233657445646
aF-10.506217852369732
aa(lp53
F-10.049977694057462
aF-12.416416939285634
aF-8.316784932346394
aF-10.386472779318508
aa(lp54
F-3.6263579714511605
aF-9.594431896582956
aF-8.278239955993227
aF-11.041300486459578
aa(lp55
F-5.237259843448195
aF-11.030564699991299
aF-10.671964559490444
aF-8.953981029001197
aa(lp56
F-2.851675570604232
aF-6.762780848357048
aF-10.52752602729981
aF-5.177885635477764
aa(lp57
F-2.219678567560187
aF-3.785328514379485
aF-5.561564696029433
aF-0.46331924244835465
aa(lp58
F-0.10769715934195352
aF-0.5346858907568504
aF-2.0130587820620316
aF-0.5428466425556583
aa(lp59
F0.48411994745493797
aF1.025583546445952
aF-0.3077508789216343
aF0.832457807935441
aa(lp60
F1.180460651507426
aF1.9640591213715968
aF1.2017343702554364
aF1.3608688098459012
aa(lp61
F-0.5585915454140707
aF-1.4805098590982193
aF-0.9441057780606881
aF-1.5849759606187994
aa(lp62
F-2.2934623193166725
aF-1.5339365364818975
aF-1.8153756081191919
aF-5.30617753148454
aa(lp63
F-3.920486748752451
aF-4.9049392008068375
aF-3.658919801356641
aF-8.06881810378444
aa(lp64
F-10.30758107014341
aF-8.286699308849043
aF-5.65483699034397
aF-11.941615303558304
aa(lp65
F-11.306332990399113
aF-10.351496439566315
aF-11.525791221117629
aF-11.030680966228632
aa(lp66
F-7.350555044134414
aF-7.612941527500905
aF-11.816786067387099
aF-8.12423265838602
aa(lp67
F-8.714350378006893
aF-9.167213319778249
aF-12.098414561743425
aF-7.524515504360442
aa(lp68
F-9.593238895844534
aF-0.5295685874522709
aF-8.44814132265487
aF-4.7165189080903405
aa(lp69
F-2.607095054115928
aF-2.7644281551292162
aF-7.1302532826843805
aF-0.3882907006424971
aa(lp70
F-0.736681129083491
aF-0.07246881014519287
aF-1.6807257438405578
aF1.0519083116604349
aa(lp71
F0.4198827664818354
aF1.4823671995945953
aF0.6284397067197022
aF0.4310073366959857
aa(lp72
F1.3035182894490924
aF2.0180642943422336
aF1.36459226467746
aF1.7477674253734368
aa(lp73
F-1.2364330989074823
aF-0.5882396517189314
aF-1.2338567443885229
aF-2.3510525269467024
aa(lp74
F-2.0885385671951133
aF-1.8666291949438614
aF-1.0031259726764337
aF-3.3863266503991953
aa(lp75
F-2.9569921264229615
aF-5.278900361857076
aF-1.140852324452784
aF-4.341571658976884
aa(lp76
F-9.145266102535585
aF-6.271803367821458
aF-4.858810730494341
aF-9.112680161915566
aa(lp77
F-12.348988281448264
aF-5.764489673515539
aF-7.360902491700889
aF-9.888422072776882
aa(lp78
F-5.0642715179288125
aF1.3721353845890165
aF-10.858336287735318
aF0.45107459789314786
aa(lp79
F-11.048097725849221
aF9.9637202944
aF-5.605509487153274
aF-4.875754172570376
aa(lp80
F-4.151635268891127
aF4.754555082272957
aF-2.3866350587346283
aF-3.066752250316886
aa(lp81
F-2.8438813747850284
aF-1.9122972500572308
aF-4.709632054810864
aF0.8029309752937402
aa(lp82
F-0.7506355596053
aF2.713719162090779
aF-2.4128363532909183
aF-0.7942121689886168
aa(lp83
F0.7748778339026836
aF2.5627494765306693
aF1.4110172582954315
aF2.5452529837915865
aa(lp84
F1.683113578212687
aF2.4528868977111715
aF1.9713343858216181
aF1.8060335897571151
aa(lp85
F-0.9462262875714489
aF-0.3889681387265286
aF-0.8268277714265025
aF-1.3763091531990044
aa(lp86
F-1.7890632479262774
aF-2.3375454909510767
aF-1.3245797887647992
aF-3.5276969814815455
aa(lp87
F-5.264911467256466
aF-3.082349549160242
aF-2.106324264478184
aF-7.290351754977411
aa(lp88
F-9.98227110452191
aF-7.201756318694574
aF-3.8853213576252994
aF-7.177854845061688
aa(lp89
F-9.504896296061764
aF-3.639001009780838
aF-6.747809318008933
aF3.131405292821051
aa(lp90
F-6.464193182764807
aF-1.8675771272818424
aF-6.625610758928806
aF9.999697767570089
aa(lp91
F0.0
aF0.0
aF0.0
aF0.0
aa(lp92
F-0.2915829573613478
aF4.504430201524331
aF7.818507887752273
aF2.1696060532245265
aa(lp93
F-1.6209200819597946
aF1.5055601630817232
aF4.39643342424331
aF0.11917879072654776
aa(lp94
F0.6749655042394279
aF3.7988129129067625
aF0.006622823609388085
aF0.3173221691034004
aa(lp95
F1.18728653460812
aF3.8969609969066186
aF1.6038962029832473
aF2.1921750481335853
aa(lp96
F1.9197821323062392
aF2.9522768538828146
aF2.435398225657973
aF2.089379931350753
aa(lp97
F-0.5760117683504752
aF-0.34218476532510317
aF-0.3741954000198876
aF-2.0186694857599723
aa(lp98
F-2.2137332104784826
aF-0.3598703493849047
aF-0.6990013310704294
aF-3.205474443314622
aa(lp99
F-5.036585201270853
aF-2.7841505182181736
aF-2.137082464928047
aF-2.8771929796792435
aa(lp100
F-7.4445069956867105
aF-1.6104511909317167
aF-3.6034270862893427
aF-6.657642000128995
aa(lp101
F-3.2901701118583935
aF-1.7527799371291433
aF-4.376642629372769
aF2.593664496062733
aa(lp102
F4.447611450770851
aF2.4903880915807424
aF-0.48398665351084164
aF5.980753547762889
aa(lp103
F9.99958968642676
aF3.709570428654517
aF3.8675313683146038
aF5.464084362246816
aa(lp104
F3.8647457921000283
aF4.548265574508412
aF7.221227872593543
aF3.4162264398589715
aa(lp105
F2.679878181126945
aF3.966578867328172
aF6.048191341668374
aF4.160086807014989
aa(lp106
F3.06055658946912
aF2.952744510183946
aF5.040777138113571
aF3.1009941985710285
aa(lp107
F2.8004088795252287
aF2.8456957691368325
aF4.326726277462841
aF3.325145400576178
aa(lp108
F1.8823329524458539
aF1.67151823426027
aF3.5485287625371327
aF3.0937526161431883
aa(lp109
F-0.9404450382123777
aF-0.21824901116845874
aF-0.40056560179489475
aF-0.3463588204546464
aa(lp110
F-1.474933399314895
aF-0.22124901070136815
aF-0.5933613266953549
aF-1.2665595553954383
aa(lp111
F-2.9608358398643873
aF-1.4725120988875393
aF-0.6663784815101212
aF-0.8864755523679402
aa(lp112
F-5.316903171333015
aF-0.29638907875075343
aF-1.2447575457073938
aF-1.9927484165228466
aa(lp113
F-2.9101420624748893
aF-1.6466624386274986
aF-1.580429747558598
aF2.617834225660919
aa(lp114
F1.1907369584718692
aF1.980456292655721
aF1.0101976484309731
aF3.894638933607757
aa(lp115
F3.571188856137414
aF3.3081343946677113
aF2.577140344811259
aF4.477915396847049
aa(lp116
F5.960634867977699
aF3.3803035045872125
aF3.636294115344999
aF4.0677546624515415
aa(lp117
F4.913906760838902
aF2.6711057470777013
aF4.09419573300145
aF3.8649300139485923
aa(lp118
F3.8034388284931393
aF2.3390276587914807
aF3.309431836924526
aF2.6113738250695833
aa(lp119
F1.6748433183590736
aF2.0619733748300666
aF3.3533763186527152
aF1.9205930321724365
aa(lp120
F1.1419781041872867
aF1.1141008446945764
aF2.907211168744998
aF1.4826229696817503
aa(lp121
F-0.3522693790142032
aF-0.14459968807612023
aF-0.3237121479586732
aF-0.29700108327457575
aa(lp122
F-0.8030853862635453
aF-0.1167479274416049
aF-0.2978646895178692
aF-0.26327926299596294
aa(lp123
F-1.5133474840068608
aF-0.46405670727279585
aF-0.20441808182859356
aF-0.35782632806435505
aa(lp124
F-0.8592785972665457
aF-0.1598988810030848
aF-0.30232167239048857
aF0.17676233231792918
aa(lp125
F-0.5750312031645667
aF-0.22145291863551375
aF-0.3757752233093797
aF2.213583835230975
aa(lp126
F2.28773270668588
aF0.5691316451683391
aF2.237948639692239
aF2.4528547548921193
aa(lp127
F3.182501379649862
aF2.046148274109629
aF2.2044588619348215
aF1.6824343961595252
aa(lp128
F4.420898021141061
aF2.3770249807708543
aF2.4718601221011802
aF2.4271799111020527
aa(lp129
F1.8429680630546093
aF0.6119251429559702
aF2.7087891943497477
aF1.092889758585421
aa(lp130
F2.804452871540486
aF0.8307251482010624
aF1.6703535340238356
aF1.5541791189061762
aa(lp131
F2.648980769824033
aF0.6139759010702078
aF1.6176651079254902
aF0.17104399713965276
aa(lp132
F0.9227034816174146
aF0.04239040686205842
aF1.9282106294300405
aF0.016587879779139572
aa(lp133
F-0.2340120095349823
aF-0.14485381017145768
aF-0.11536361161490769
aF-0.11225404172639664
aa(lp134
F-0.1411553411326521
aF-0.12167471168259196
aF-0.1104665978650817
aF-0.11912033261389689
aa(lp135
F-1.0097930336961236
aF-0.18301498804273086
aF-0.12168108630922177
aF-0.12266557494435092
aa(lp136
F-0.13268060112423072
aF-0.02581332921049598
aF-0.16754970657511503
aF-0.14798449046642764
aa(lp137
F-0.30995806872307546
aF-0.22460511019688553
aF-0.15814833840460876
aF0.4295424466987161
aa(lp138
F1.6558834627015853
aF0.5171525441731185
aF-0.15847367136104717
aF1.2651201354947943
aa(lp139
F2.562222400753424
aF1.0391303353114207
aF2.0150365184672343
aF0.6461374890736059
aa(lp140
F3.0869548200486645
aF1.293019079105992
aF2.134720291097761
aF0.9510896808364507
aa(lp141
F2.031205876988417
aF0.17581421876436815
aF0.5509003129219212
aF0.10343566439953136
aa(lp142
F1.0765919145681033
aF0.14043700628358716
aF0.549694888623879
aF0.361748424455202
aa(lp143
F0.9544716934121674
aF0.20903845339777466
aF0.4888787864745065
aF0.07928577507155014
aa(lp144
F-0.01871596758382931
aF0.005026471165015512
aF0.16508750639691364
aF0.06267282340003182
aa.